

Microchip MPLAB XC8 Assembler V2.35 build 20211206165544 
                                                                                               Sat May 07 11:21:08 2022

Microchip MPLAB XC8 C Compiler v2.35 (Free license) build 20211206165544 Og1 
     1                           	processor	16F887
     2                           	pagewidth 120
     3                           	opt	flic
     4                           	psect	idataBANK1,global,class=CODE,delta=2,noexec
     5                           	psect	idataBANK3,global,class=CODE,delta=2,noexec
     6                           	psect	strings,global,class=STRING,delta=2,noexec
     7                           	psect	cinit,global,class=CODE,merge=1,delta=2
     8                           	psect	bssBANK0,global,class=BANK0,space=1,delta=1,noexec
     9                           	psect	dataBANK1,global,class=BANK1,space=1,delta=1,noexec
    10                           	psect	dataBANK3,global,class=BANK3,space=1,delta=1,noexec
    11                           	psect	inittext,global,class=CODE,delta=2
    12                           	psect	cstackCOMMON,global,class=COMMON,space=1,delta=1,noexec
    13                           	psect	cstackBANK0,global,class=BANK0,space=1,delta=1,noexec
    14                           	psect	maintext,global,class=CODE,split=1,delta=2
    15                           	psect	text1,local,class=CODE,merge=1,delta=2
    16                           	psect	text2,local,class=CODE,merge=1,delta=2
    17                           	psect	text3,local,class=CODE,merge=1,delta=2
    18                           	psect	intentry,global,class=CODE,delta=2
    19                           	psect	text4,local,class=CODE,merge=1,delta=2
    20                           	psect	text5,local,class=CODE,merge=1,delta=2
    21                           	psect	text6,local,class=CODE,merge=1,delta=2,group=2
    22                           	psect	text7,local,class=CODE,merge=1,delta=2,group=2
    23                           	psect	text8,local,class=CODE,merge=1,delta=2,group=1
    24                           	psect	text9,local,class=CODE,merge=1,delta=2,group=1
    25                           	psect	text10,local,class=CODE,merge=1,delta=2,group=1
    26                           	psect	text11,local,class=CODE,merge=1,delta=2,group=1
    27                           	psect	idloc,global,abs,ovrld,class=IDLOC,space=5,delta=2,noexec
    28                           	psect	config,global,abs,ovrld,class=CONFIG,space=4,delta=2,noexec
    29                           	dabs	1,0x7E,2
    30  0000                     
    31                           ; Version 2.40
    32                           ; Generated 17/11/2021 GMT
    33                           ; 
    34                           ; Copyright Â© 2021, Microchip Technology Inc. and its subsidiaries ("Microchip")
    35                           ; All rights reserved.
    36                           ; 
    37                           ; This software is developed by Microchip Technology Inc. and its subsidiaries ("Microch
      +                          ip").
    38                           ; 
    39                           ; Redistribution and use in source and binary forms, with or without modification, are
    40                           ; permitted provided that the following conditions are met:
    41                           ; 
    42                           ;     1. Redistributions of source code must retain the above copyright notice, this lis
      +                          t of
    43                           ;        conditions and the following disclaimer.
    44                           ; 
    45                           ;     2. Redistributions in binary form must reproduce the above copyright notice, this 
      +                          list
    46                           ;        of conditions and the following disclaimer in the documentation and/or other
    47                           ;        materials provided with the distribution. Publication is not required when
    48                           ;        this file is used in an embedded application.
    49                           ; 
    50                           ;     3. Microchip's name may not be used to endorse or promote products derived from th
      +                          is
    51                           ;        software without specific prior written permission.
    52                           ; 
    53                           ; THIS SOFTWARE IS PROVIDED BY MICROCHIP "AS IS" AND ANY EXPRESS OR IMPLIED WARRANTIES,
    54                           ; INCLUDING, BUT NOT LIMITED TO, THE IMPLIED WARRANTIES OF MERCHANTABILITY AND FITNESS F
      +                          OR
    55                           ; PURPOSE ARE DISCLAIMED.  IN NO EVENT SHALL MICROCHIP BE LIABLE FOR ANY DIRECT, INDIREC
      +                          T,
    56                           ; INCIDENTAL, SPECIAL, EXEMPLARY, OR CONSEQUENTIAL DAMAGES (INCLUDING BUT NOT LIMITED TO
    57                           ; PROCUREMENT OF SUBSTITUTE GOODS OR SERVICES; LOSS OF USE, DATA OR PROFITS; OR BUSINESS
    58                           ; INTERRUPTION) HOWSOEVER CAUSED AND ON ANY THEORY OF LIABILITY, WHETHER IN CONTRACT, ST
      +                          RICT
    59                           ; LIABILITY, OR TORT (INCLUDING NEGLIGENCE OR OTHERWISE) ARISING IN ANY WAY OUT OF THE U
      +                          SE OF
    60                           ; THIS SOFTWARE, EVEN IF ADVISED OF THE POSSIBILITY OF SUCH DAMAGE.
    61                           ; 
    62                           ; 
    63                           ; Code-generator required, PIC16F887 Definitions
    64                           ; 
    65                           ; SFR Addresses
    66  0000                     	;# 
    67  0001                     	;# 
    68  0002                     	;# 
    69  0003                     	;# 
    70  0004                     	;# 
    71  0005                     	;# 
    72  0006                     	;# 
    73  0007                     	;# 
    74  0008                     	;# 
    75  0009                     	;# 
    76  000A                     	;# 
    77  000B                     	;# 
    78  000C                     	;# 
    79  000D                     	;# 
    80  000E                     	;# 
    81  000E                     	;# 
    82  000F                     	;# 
    83  0010                     	;# 
    84  0011                     	;# 
    85  0012                     	;# 
    86  0013                     	;# 
    87  0014                     	;# 
    88  0015                     	;# 
    89  0015                     	;# 
    90  0016                     	;# 
    91  0017                     	;# 
    92  0018                     	;# 
    93  0019                     	;# 
    94  001A                     	;# 
    95  001B                     	;# 
    96  001B                     	;# 
    97  001C                     	;# 
    98  001D                     	;# 
    99  001E                     	;# 
   100  001F                     	;# 
   101  0081                     	;# 
   102  0085                     	;# 
   103  0086                     	;# 
   104  0087                     	;# 
   105  0088                     	;# 
   106  0089                     	;# 
   107  008C                     	;# 
   108  008D                     	;# 
   109  008E                     	;# 
   110  008F                     	;# 
   111  0090                     	;# 
   112  0091                     	;# 
   113  0092                     	;# 
   114  0093                     	;# 
   115  0093                     	;# 
   116  0093                     	;# 
   117  0094                     	;# 
   118  0095                     	;# 
   119  0096                     	;# 
   120  0097                     	;# 
   121  0098                     	;# 
   122  0099                     	;# 
   123  009A                     	;# 
   124  009B                     	;# 
   125  009C                     	;# 
   126  009D                     	;# 
   127  009E                     	;# 
   128  009F                     	;# 
   129  0105                     	;# 
   130  0107                     	;# 
   131  0108                     	;# 
   132  0109                     	;# 
   133  010C                     	;# 
   134  010C                     	;# 
   135  010D                     	;# 
   136  010E                     	;# 
   137  010F                     	;# 
   138  0185                     	;# 
   139  0187                     	;# 
   140  0188                     	;# 
   141  0189                     	;# 
   142  018C                     	;# 
   143  018D                     	;# 
   144  0000                     	;# 
   145  0001                     	;# 
   146  0002                     	;# 
   147  0003                     	;# 
   148  0004                     	;# 
   149  0005                     	;# 
   150  0006                     	;# 
   151  0007                     	;# 
   152  0008                     	;# 
   153  0009                     	;# 
   154  000A                     	;# 
   155  000B                     	;# 
   156  000C                     	;# 
   157  000D                     	;# 
   158  000E                     	;# 
   159  000E                     	;# 
   160  000F                     	;# 
   161  0010                     	;# 
   162  0011                     	;# 
   163  0012                     	;# 
   164  0013                     	;# 
   165  0014                     	;# 
   166  0015                     	;# 
   167  0015                     	;# 
   168  0016                     	;# 
   169  0017                     	;# 
   170  0018                     	;# 
   171  0019                     	;# 
   172  001A                     	;# 
   173  001B                     	;# 
   174  001B                     	;# 
   175  001C                     	;# 
   176  001D                     	;# 
   177  001E                     	;# 
   178  001F                     	;# 
   179  0081                     	;# 
   180  0085                     	;# 
   181  0086                     	;# 
   182  0087                     	;# 
   183  0088                     	;# 
   184  0089                     	;# 
   185  008C                     	;# 
   186  008D                     	;# 
   187  008E                     	;# 
   188  008F                     	;# 
   189  0090                     	;# 
   190  0091                     	;# 
   191  0092                     	;# 
   192  0093                     	;# 
   193  0093                     	;# 
   194  0093                     	;# 
   195  0094                     	;# 
   196  0095                     	;# 
   197  0096                     	;# 
   198  0097                     	;# 
   199  0098                     	;# 
   200  0099                     	;# 
   201  009A                     	;# 
   202  009B                     	;# 
   203  009C                     	;# 
   204  009D                     	;# 
   205  009E                     	;# 
   206  009F                     	;# 
   207  0105                     	;# 
   208  0107                     	;# 
   209  0108                     	;# 
   210  0109                     	;# 
   211  010C                     	;# 
   212  010C                     	;# 
   213  010D                     	;# 
   214  010E                     	;# 
   215  010F                     	;# 
   216  0185                     	;# 
   217  0187                     	;# 
   218  0188                     	;# 
   219  0189                     	;# 
   220  018C                     	;# 
   221  018D                     	;# 
   222                           
   223                           	psect	idataBANK1
   224  0456                     __pidataBANK1:
   225                           
   226                           ;initializer for _pregunta_2
   227  0456  340A               	retlw	10
   228  0457  340D               	retlw	13
   229  0458  34A1               	retlw	161
   230  0459  3450               	retlw	80
   231  045A  3465               	retlw	101
   232  045B  3472               	retlw	114
   233  045C  3466               	retlw	102
   234  045D  3465               	retlw	101
   235  045E  3463               	retlw	99
   236  045F  3474               	retlw	116
   237  0460  346F               	retlw	111
   238  0461  3421               	retlw	33
   239  0462  340A               	retlw	10
   240  0463  340D               	retlw	13
   241  0464  34BF               	retlw	191
   242  0465  3451               	retlw	81
   243  0466  3475               	retlw	117
   244  0467  34E9               	retlw	233
   245  0468  3420               	retlw	32
   246  0469  3463               	retlw	99
   247  046A  3461               	retlw	97
   248  046B  3472               	retlw	114
   249  046C  34E1               	retlw	225
   250  046D  3463               	retlw	99
   251  046E  3474               	retlw	116
   252  046F  3465               	retlw	101
   253  0470  3472               	retlw	114
   254  0471  3420               	retlw	32
   255  0472  346F               	retlw	111
   256  0473  3420               	retlw	32
   257  0474  346E               	retlw	110
   258  0475  34FA               	retlw	250
   259  0476  346D               	retlw	109
   260  0477  3465               	retlw	101
   261  0478  3472               	retlw	114
   262  0479  346F               	retlw	111
   263  047A  3420               	retlw	32
   264  047B  3471               	retlw	113
   265  047C  3475               	retlw	117
   266  047D  3469               	retlw	105
   267  047E  3465               	retlw	101
   268  047F  3472               	retlw	114
   269  0480  3465               	retlw	101
   270  0481  3420               	retlw	32
   271  0482  3465               	retlw	101
   272  0483  346E               	retlw	110
   273  0484  3476               	retlw	118
   274  0485  3469               	retlw	105
   275  0486  3461               	retlw	97
   276  0487  3472               	retlw	114
   277  0488  3420               	retlw	32
   278  0489  3428               	retlw	40
   279  048A  3475               	retlw	117
   280  048B  346E               	retlw	110
   281  048C  3461               	retlw	97
   282  048D  3420               	retlw	32
   283  048E  346C               	retlw	108
   284  048F  3465               	retlw	101
   285  0490  3474               	retlw	116
   286  0491  3472               	retlw	114
   287  0492  3461               	retlw	97
   288  0493  3420               	retlw	32
   289  0494  346F               	retlw	111
   290  0495  3420               	retlw	32
   291  0496  3475               	retlw	117
   292  0497  346E               	retlw	110
   293  0498  3420               	retlw	32
   294  0499  3464               	retlw	100
   295  049A  34ED               	retlw	237
   296  049B  3467               	retlw	103
   297  049C  3469               	retlw	105
   298  049D  3474               	retlw	116
   299  049E  346F               	retlw	111
   300  049F  3429               	retlw	41
   301  04A0  343F               	retlw	63
   302  04A1  3420               	retlw	32
   303  04A2  340A               	retlw	10
   304  04A3  340D               	retlw	13
   305  04A4  3400               	retlw	0
   306                           
   307                           	psect	idataBANK3
   308  03A7                     __pidataBANK3:
   309                           
   310                           ;initializer for _pregunta_1
   311  03A7  340A               	retlw	10
   312  03A8  340D               	retlw	13
   313  03A9  3442               	retlw	66
   314  03AA  3469               	retlw	105
   315  03AB  3465               	retlw	101
   316  03AC  346E               	retlw	110
   317  03AD  3476               	retlw	118
   318  03AE  3465               	retlw	101
   319  03AF  346E               	retlw	110
   320  03B0  3469               	retlw	105
   321  03B1  3464               	retlw	100
   322  03B2  3440               	retlw	64
   323  03B3  3420               	retlw	32
   324  03B4  342D               	retlw	45
   325  03B5  3420               	retlw	32
   326  03B6  3453               	retlw	83
   327  03B7  3465               	retlw	101
   328  03B8  346C               	retlw	108
   329  03B9  3465               	retlw	101
   330  03BA  3463               	retlw	99
   331  03BB  3463               	retlw	99
   332  03BC  3469               	retlw	105
   333  03BD  346F               	retlw	111
   334  03BE  346E               	retlw	110
   335  03BF  3465               	retlw	101
   336  03C0  3420               	retlw	32
   337  03C1  3469               	retlw	105
   338  03C2  346E               	retlw	110
   339  03C3  3467               	retlw	103
   340  03C4  3472               	retlw	114
   341  03C5  3465               	retlw	101
   342  03C6  3473               	retlw	115
   343  03C7  3461               	retlw	97
   344  03C8  346E               	retlw	110
   345  03C9  3464               	retlw	100
   346  03CA  346F               	retlw	111
   347  03CB  3420               	retlw	32
   348  03CC  3473               	retlw	115
   349  03CD  346F               	retlw	111
   350  03CE  346C               	retlw	108
   351  03CF  346F               	retlw	111
   352  03D0  3420               	retlw	32
   353  03D1  3465               	retlw	101
   354  03D2  346C               	retlw	108
   355  03D3  3420               	retlw	32
   356  03D4  346E               	retlw	110
   357  03D5  34FA               	retlw	250
   358  03D6  346D               	retlw	109
   359  03D7  3465               	retlw	101
   360  03D8  3472               	retlw	114
   361  03D9  346F               	retlw	111
   362  03DA  343A               	retlw	58
   363  03DB  340A               	retlw	10
   364  03DC  340D               	retlw	13
   365  03DD  3431               	retlw	49
   366  03DE  342E               	retlw	46
   367  03DF  344C               	retlw	76
   368  03E0  3465               	retlw	101
   369  03E1  3465               	retlw	101
   370  03E2  3472               	retlw	114
   371  03E3  3420               	retlw	32
   372  03E4  3470               	retlw	112
   373  03E5  346F               	retlw	111
   374  03E6  3474               	retlw	116
   375  03E7  3465               	retlw	101
   376  03E8  346E               	retlw	110
   377  03E9  3463               	retlw	99
   378  03EA  3469               	retlw	105
   379  03EB  34F3               	retlw	243
   380  03EC  346D               	retlw	109
   381  03ED  3465               	retlw	101
   382  03EE  3474               	retlw	116
   383  03EF  3472               	retlw	114
   384  03F0  346F               	retlw	111
   385  03F1  342E               	retlw	46
   386  03F2  340A               	retlw	10
   387  03F3  340D               	retlw	13
   388  03F4  3432               	retlw	50
   389  03F5  342E               	retlw	46
   390  03F6  3445               	retlw	69
   391  03F7  346E               	retlw	110
   392  03F8  3476               	retlw	118
   393  03F9  3469               	retlw	105
   394  03FA  3461               	retlw	97
   395  03FB  3472               	retlw	114
   396  03FC  3420               	retlw	32
   397  03FD  3441               	retlw	65
   398  03FE  3473               	retlw	115
   399  03FF  3463               	retlw	99
   400  0400  3469               	retlw	105
   401  0401  3469               	retlw	105
   402  0402  342E               	retlw	46
   403  0403  340A               	retlw	10
   404  0404  340D               	retlw	13
   405  0405  3400               	retlw	0
   406  0019                     _TXREG	set	25
   407  001A                     _RCREG	set	26
   408  000B                     _INTCONbits	set	11
   409  0018                     _RCSTAbits	set	24
   410  0008                     _PORTD	set	8
   411  0005                     _PORTA	set	5
   412  001E                     _ADRESH	set	30
   413  001F                     _ADCON0bits	set	31
   414  000C                     _PIR1bits	set	12
   415  008C                     _PIE1bits	set	140
   416  009F                     _ADCON1bits	set	159
   417  0099                     _SPBRG	set	153
   418  009A                     _SPBRGH	set	154
   419  0098                     _TXSTAbits	set	152
   420  008F                     _OSCCONbits	set	143
   421  0088                     _TRISD	set	136
   422  0085                     _TRISA	set	133
   423  0187                     _BAUDCTLbits	set	391
   424  0189                     _ANSELH	set	393
   425  0188                     _ANSEL	set	392
   426                           
   427                           	psect	strings
   428  0200                     __pstrings:
   429  0200                     stringtab:
   430  0200                     __stringtab:
   431                           
   432                           ;	String table - string pointers are 1 byte each
   433  0200  1BFF               	btfsc	btemp+1,7
   434  0201  2A0A               	ljmp	stringcode
   435  0202  1383               	bcf	3,7
   436  0203  187F               	btfsc	btemp+1,0
   437  0204  1783               	bsf	3,7
   438  0205  0800               	movf	0,w
   439  0206  0A84               	incf	4,f
   440  0207  1903               	skipnz
   441  0208  0AFF               	incf	btemp+1,f
   442  0209  0008               	return
   443  020A                     stringcode:
   444  020A                     stringdir:
   445  020A  3002               	movlw	high stringdir
   446  020B  008A               	movwf	10
   447  020C  0804               	movf	4,w
   448  020D  0A84               	incf	4,f
   449  020E  0782               	addwf	2,f
   450  020F                     __stringbase:
   451  020F  3400               	retlw	0
   452  0210                     __end_of__stringtab:
   453  0210                     STR_1:
   454  0210  3450               	retlw	80	;'P'
   455  0211  3472               	retlw	114	;'r'
   456  0212  3465               	retlw	101	;'e'
   457  0213  3473               	retlw	115	;'s'
   458  0214  3469               	retlw	105	;'i'
   459  0215  346F               	retlw	111	;'o'
   460  0216  346E               	retlw	110	;'n'
   461  0217  3465               	retlw	101	;'e'
   462  0218  3420               	retlw	32	;' '
   463  0219  346C               	retlw	108	;'l'
   464  021A  3461               	retlw	97	;'a'
   465  021B  3420               	retlw	32	;' '
   466  021C  3462               	retlw	98	;'b'
   467  021D  3461               	retlw	97	;'a'
   468  021E  3472               	retlw	114	;'r'
   469  021F  3472               	retlw	114	;'r'
   470  0220  3461               	retlw	97	;'a'
   471  0221  3420               	retlw	32	;' '
   472  0222  3465               	retlw	101	;'e'
   473  0223  3473               	retlw	115	;'s'
   474  0224  3470               	retlw	112	;'p'
   475  0225  3461               	retlw	97	;'a'
   476  0226  3463               	retlw	99	;'c'
   477  0227  3469               	retlw	105	;'i'
   478  0228  3461               	retlw	97	;'a'
   479  0229  3464               	retlw	100	;'d'
   480  022A  346F               	retlw	111	;'o'
   481  022B  3472               	retlw	114	;'r'
   482  022C  3461               	retlw	97	;'a'
   483  022D  3420               	retlw	32	;' '
   484  022E  3463               	retlw	99	;'c'
   485  022F  3475               	retlw	117	;'u'
   486  0230  3461               	retlw	97	;'a'
   487  0231  346E               	retlw	110	;'n'
   488  0232  3464               	retlw	100	;'d'
   489  0233  346F               	retlw	111	;'o'
   490  0234  3420               	retlw	32	;' '
   491  0235  3465               	retlw	101	;'e'
   492  0236  3473               	retlw	115	;'s'
   493  0237  3474               	retlw	116	;'t'
   494  0238  34E9               	retlw	-23
   495  0239  3420               	retlw	32	;' '
   496  023A  346C               	retlw	108	;'l'
   497  023B  3469               	retlw	105	;'i'
   498  023C  3473               	retlw	115	;'s'
   499  023D  3474               	retlw	116	;'t'
   500  023E  346F               	retlw	111	;'o'
   501  023F  3420               	retlw	32	;' '
   502  0240  340A               	retlw	10
   503  0241  340D               	retlw	13
   504  0242  340A               	retlw	10
   505  0243  340D               	retlw	13
   506  0244  3400               	retlw	0
   507  0245                     STR_3:
   508  0245  340A               	retlw	10
   509  0246  340D               	retlw	13
   510  0247  3445               	retlw	69	;'E'
   511  0248  346C               	retlw	108	;'l'
   512  0249  3420               	retlw	32	;' '
   513  024A  3476               	retlw	118	;'v'
   514  024B  3461               	retlw	97	;'a'
   515  024C  346C               	retlw	108	;'l'
   516  024D  346F               	retlw	111	;'o'
   517  024E  3472               	retlw	114	;'r'
   518  024F  3420               	retlw	32	;' '
   519  0250  3461               	retlw	97	;'a'
   520  0251  3463               	retlw	99	;'c'
   521  0252  3474               	retlw	116	;'t'
   522  0253  3475               	retlw	117	;'u'
   523  0254  3461               	retlw	97	;'a'
   524  0255  346C               	retlw	108	;'l'
   525  0256  3420               	retlw	32	;' '
   526  0257  3464               	retlw	100	;'d'
   527  0258  3465               	retlw	101	;'e'
   528  0259  346C               	retlw	108	;'l'
   529  025A  3420               	retlw	32	;' '
   530  025B  3470               	retlw	112	;'p'
   531  025C  346F               	retlw	111	;'o'
   532  025D  3474               	retlw	116	;'t'
   533  025E  3465               	retlw	101	;'e'
   534  025F  346E               	retlw	110	;'n'
   535  0260  3463               	retlw	99	;'c'
   536  0261  3469               	retlw	105	;'i'
   537  0262  34F3               	retlw	-13
   538  0263  346D               	retlw	109	;'m'
   539  0264  3465               	retlw	101	;'e'
   540  0265  3474               	retlw	116	;'t'
   541  0266  3472               	retlw	114	;'r'
   542  0267  346F               	retlw	111	;'o'
   543  0268  3420               	retlw	32	;' '
   544  0269  3465               	retlw	101	;'e'
   545  026A  3473               	retlw	115	;'s'
   546  026B  343A               	retlw	58	;':'
   547  026C  3420               	retlw	32	;' '
   548  026D  3400               	retlw	0
   549  026E                     STR_7:
   550  026E  340A               	retlw	10
   551  026F  340D               	retlw	13
   552  0270  34A1               	retlw	-95
   553  0271  3445               	retlw	69	;'E'
   554  0272  3472               	retlw	114	;'r'
   555  0273  3472               	retlw	114	;'r'
   556  0274  346F               	retlw	111	;'o'
   557  0275  3472               	retlw	114	;'r'
   558  0276  342C               	retlw	44	;','
   559  0277  3420               	retlw	32	;' '
   560  0278  3469               	retlw	105	;'i'
   561  0279  346E               	retlw	110	;'n'
   562  027A  3467               	retlw	103	;'g'
   563  027B  3472               	retlw	114	;'r'
   564  027C  3465               	retlw	101	;'e'
   565  027D  3473               	retlw	115	;'s'
   566  027E  3465               	retlw	101	;'e'
   567  027F  3420               	retlw	32	;' '
   568  0280  3431               	retlw	49	;'1'
   569  0281  3420               	retlw	32	;' '
   570  0282  346F               	retlw	111	;'o'
   571  0283  3420               	retlw	32	;' '
   572  0284  3432               	retlw	50	;'2'
   573  0285  3421               	retlw	33	;'!'
   574  0286  340A               	retlw	10
   575  0287  340D               	retlw	13
   576  0288  340A               	retlw	10
   577  0289  340D               	retlw	13
   578  028A  3400               	retlw	0
   579  028B                     STR_9:
   580  028B  340A               	retlw	10
   581  028C  340D               	retlw	13
   582  028D  340A               	retlw	10
   583  028E  340D               	retlw	13
   584  028F  3445               	retlw	69	;'E'
   585  0290  346C               	retlw	108	;'l'
   586  0291  3420               	retlw	32	;' '
   587  0292  3441               	retlw	65	;'A'
   588  0293  3453               	retlw	83	;'S'
   589  0294  3443               	retlw	67	;'C'
   590  0295  3449               	retlw	73	;'I'
   591  0296  3449               	retlw	73	;'I'
   592  0297  3420               	retlw	32	;' '
   593  0298  3472               	retlw	114	;'r'
   594  0299  3465               	retlw	101	;'e'
   595  029A  3463               	retlw	99	;'c'
   596  029B  3469               	retlw	105	;'i'
   597  029C  3462               	retlw	98	;'b'
   598  029D  3469               	retlw	105	;'i'
   599  029E  3464               	retlw	100	;'d'
   600  029F  346F               	retlw	111	;'o'
   601  02A0  3420               	retlw	32	;' '
   602  02A1  3466               	retlw	102	;'f'
   603  02A2  3475               	retlw	117	;'u'
   604  02A3  3465               	retlw	101	;'e'
   605  02A4  343A               	retlw	58	;':'
   606  02A5  3420               	retlw	32	;' '
   607  02A6  3400               	retlw	0
   608  02A7                     STR_4:
   609  02A7  3420               	retlw	32	;' '
   610  02A8  3471               	retlw	113	;'q'
   611  02A9  3475               	retlw	117	;'u'
   612  02AA  3465               	retlw	101	;'e'
   613  02AB  3420               	retlw	32	;' '
   614  02AC  3465               	retlw	101	;'e'
   615  02AD  3471               	retlw	113	;'q'
   616  02AE  3475               	retlw	117	;'u'
   617  02AF  3469               	retlw	105	;'i'
   618  02B0  3476               	retlw	118	;'v'
   619  02B1  3461               	retlw	97	;'a'
   620  02B2  346C               	retlw	108	;'l'
   621  02B3  3465               	retlw	101	;'e'
   622  02B4  3420               	retlw	32	;' '
   623  02B5  3461               	retlw	97	;'a'
   624  02B6  346C               	retlw	108	;'l'
   625  02B7  3420               	retlw	32	;' '
   626  02B8  347E               	retlw	126	;'~'
   627  02B9  3400               	retlw	0
   628  02BA                     STR_5:
   629  02BA  3425               	retlw	37	;'%'
   630  02BB  340A               	retlw	10
   631  02BC  340D               	retlw	13
   632  02BD  3400               	retlw	0
   633  02BE                     STR_10:
   634  02BE  342E               	retlw	46	;'.'
   635  02BF  340A               	retlw	10
   636  02C0  340D               	retlw	13
   637  02C1  3400               	retlw	0
   638  02C2                     STR_2:
   639  02C2  3431               	retlw	49	;'1'
   640  02C3  340A               	retlw	10
   641  02C4  340D               	retlw	13
   642  02C5  3400               	retlw	0
   643  02C6                     STR_6:
   644  02C6  3432               	retlw	50	;'2'
   645  02C7  340A               	retlw	10
   646  02C8  340D               	retlw	13
   647  02C9  3400               	retlw	0
   648  02CA                     STR_8:
   649  02CA  3408               	retlw	8
   650  02CB  3400               	retlw	0
   651                           
   652                           	psect	cinit
   653  0015                     start_initialization:	
   654                           ; #config settings
   655                           
   656  0015                     __initialization:
   657                           
   658                           ; Initialize objects allocated to BANK3
   659  0015  1783               	bsf	3,7	;select IRP bank2
   660  0016  30EF               	movlw	low (__pdataBANK3+95)
   661  0017  00FD               	movwf	btemp+-1
   662  0018  3003               	movlw	high __pidataBANK3
   663  0019  00FE               	movwf	btemp
   664  001A  30A7               	movlw	low __pidataBANK3
   665  001B  00FF               	movwf	btemp+1
   666  001C  3090               	movlw	low __pdataBANK3
   667  001D  0084               	movwf	4
   668  001E  120A  118A  2636  120A  118A  	fcall	init_ram0
   669                           
   670                           ; Initialize objects allocated to BANK1
   671  0023  1383               	bcf	3,7	;select IRP bank0
   672  0024  30EF               	movlw	low (__pdataBANK1+79)
   673  0025  00FD               	movwf	btemp+-1
   674  0026  3004               	movlw	high __pidataBANK1
   675  0027  00FE               	movwf	btemp
   676  0028  3056               	movlw	low __pidataBANK1
   677  0029  00FF               	movwf	btemp+1
   678  002A  30A0               	movlw	low __pdataBANK1
   679  002B  0084               	movwf	4
   680  002C  120A  118A  2636  120A  118A  	fcall	init_ram0
   681                           
   682                           ; Clear objects allocated to BANK0
   683  0031  01B4               	clrf	__pbssBANK0& (0+127)
   684  0032  01B5               	clrf	(__pbssBANK0+1)& (0+127)
   685  0033  01B6               	clrf	(__pbssBANK0+2)& (0+127)
   686  0034  01B7               	clrf	(__pbssBANK0+3)& (0+127)
   687  0035  01B8               	clrf	(__pbssBANK0+4)& (0+127)
   688  0036  01B9               	clrf	(__pbssBANK0+5)& (0+127)
   689  0037  01BA               	clrf	(__pbssBANK0+6)& (0+127)
   690  0038  01BB               	clrf	(__pbssBANK0+7)& (0+127)
   691  0039                     end_of_initialization:	
   692                           ;End of C runtime variable initialization code
   693                           
   694  0039                     __end_of__initialization:
   695  0039  0183               	clrf	3
   696  003A  120A  118A  2CA5   	ljmp	_main	;jump to C main() function
   697                           
   698                           	psect	bssBANK0
   699  0034                     __pbssBANK0:
   700  0034                     _imp:
   701  0034                     	ds	2
   702  0036                     _dato:
   703  0036                     	ds	2
   704  0038                     _estado:
   705  0038                     	ds	2
   706  003A                     _val_pot:
   707  003A                     	ds	1
   708  003B                     _val_imp:
   709  003B                     	ds	1
   710                           
   711                           	psect	dataBANK1
   712  00A0                     __pdataBANK1:
   713  00A0                     _pregunta_2:
   714  00A0                     	ds	79
   715                           
   716                           	psect	dataBANK3
   717  0190                     __pdataBANK3:
   718  0190                     _pregunta_1:
   719  0190                     	ds	95
   720                           
   721                           	psect	inittext
   722  0632                     init_fetch0:	
   723                           ;	Called with low address in FSR and high address in W
   724                           
   725  0632  087E               	movf	btemp,w
   726  0633  008A               	movwf	10
   727  0634  087F               	movf	btemp+1,w
   728  0635  0082               	movwf	2
   729  0636                     init_ram0:	
   730                           ;Called with:
   731                           ;	high address of idata address in btemp 
   732                           ;	low address of idata address in btemp+1 
   733                           ;	low address of data in FSR
   734                           ;	high address + 1 of data in btemp-1
   735                           
   736  0636  120A  118A  2632  120A  118A  	fcall	init_fetch0
   737  063B  0080               	movwf	0
   738  063C  0A84               	incf	4,f
   739  063D  0804               	movf	4,w
   740  063E  067D               	xorwf	btemp+-1,w
   741  063F  1903               	btfsc	3,2
   742  0640  3400               	retlw	0
   743  0641  0AFF               	incf	btemp+1,f
   744  0642  1903               	btfsc	3,2
   745  0643  0AFE               	incf	btemp,f
   746  0644  2E36               	goto	init_ram0
   747                           
   748                           	psect	cstackCOMMON
   749  0070                     __pcstackCOMMON:
   750  0070                     ?_set_estado:
   751  0070                     ?_setup:	
   752                           ; 1 bytes @ 0x0
   753                           
   754  0070                     ?_isr:	
   755                           ; 1 bytes @ 0x0
   756                           
   757  0070                     ?_main:	
   758                           ; 1 bytes @ 0x0
   759                           
   760  0070                     ?i1_impresion:	
   761                           ; 1 bytes @ 0x0
   762                           
   763  0070                     ?___wmul:	
   764                           ; 1 bytes @ 0x0
   765                           
   766  0070                     ?___lwdiv:	
   767                           ; 2 bytes @ 0x0
   768                           
   769  0070                     ?___lwmod:	
   770                           ; 2 bytes @ 0x0
   771                           
   772  0070                     ___wmul@multiplier:	
   773                           ; 2 bytes @ 0x0
   774                           
   775  0070                     ___lwdiv@divisor:	
   776                           ; 2 bytes @ 0x0
   777                           
   778  0070                     ___lwmod@divisor:	
   779                           ; 2 bytes @ 0x0
   780                           
   781  0070                     i1impresion@txt:	
   782                           ; 2 bytes @ 0x0
   783                           
   784                           
   785                           ; 2 bytes @ 0x0
   786  0070                     	ds	2
   787  0072                     ??i1_impresion:
   788  0072                     ___wmul@multiplicand:	
   789                           ; 1 bytes @ 0x2
   790                           
   791  0072                     ___lwdiv@dividend:	
   792                           ; 2 bytes @ 0x2
   793                           
   794  0072                     ___lwmod@dividend:	
   795                           ; 2 bytes @ 0x2
   796                           
   797                           
   798                           ; 2 bytes @ 0x2
   799  0072                     	ds	1
   800  0073                     i1impresion@i:
   801                           
   802                           ; 1 bytes @ 0x3
   803  0073                     	ds	1
   804  0074                     ??___wmul:
   805  0074                     ??___lwdiv:	
   806                           ; 1 bytes @ 0x4
   807                           
   808  0074                     ??___lwmod:	
   809                           ; 1 bytes @ 0x4
   810                           
   811  0074                     ___wmul@product:	
   812                           ; 1 bytes @ 0x4
   813                           
   814                           
   815                           ; 2 bytes @ 0x4
   816  0074                     	ds	1
   817  0075                     ___lwmod@counter:
   818  0075                     ___lwdiv@quotient:	
   819                           ; 1 bytes @ 0x5
   820                           
   821                           
   822                           ; 2 bytes @ 0x5
   823  0075                     	ds	1
   824  0076                     ?___awdiv:
   825  0076                     ___awdiv@divisor:	
   826                           ; 2 bytes @ 0x6
   827                           
   828                           
   829                           ; 2 bytes @ 0x6
   830  0076                     	ds	1
   831  0077                     ___lwdiv@counter:
   832                           
   833                           ; 1 bytes @ 0x7
   834  0077                     	ds	1
   835  0078                     ?_utoa:
   836  0078                     ___awdiv@dividend:	
   837                           ; 1 bytes @ 0x8
   838                           
   839  0078                     utoa@val:	
   840                           ; 2 bytes @ 0x8
   841                           
   842                           
   843                           ; 2 bytes @ 0x8
   844  0078                     	ds	2
   845  007A                     ??___awdiv:
   846  007A                     utoa@base:	
   847                           ; 1 bytes @ 0xA
   848                           
   849                           
   850                           ; 2 bytes @ 0xA
   851  007A                     	ds	2
   852  007C                     ??_utoa:
   853                           
   854                           ; 1 bytes @ 0xC
   855  007C                     	ds	1
   856  007D                     ??_itoa:
   857                           
   858                           ; 1 bytes @ 0xD
   859  007D                     	ds	1
   860                           
   861                           	psect	cstackBANK0
   862  0020                     __pcstackBANK0:
   863  0020                     ___awdiv@counter:
   864  0020                     utoa@v:	
   865                           ; 1 bytes @ 0x0
   866                           
   867                           
   868                           ; 2 bytes @ 0x0
   869  0020                     	ds	1
   870  0021                     ___awdiv@sign:
   871                           
   872                           ; 1 bytes @ 0x1
   873  0021                     	ds	1
   874  0022                     utoa@c:
   875  0022                     ___awdiv@quotient:	
   876                           ; 1 bytes @ 0x2
   877                           
   878                           
   879                           ; 2 bytes @ 0x2
   880  0022                     	ds	1
   881  0023                     utoa@buf:
   882                           
   883                           ; 1 bytes @ 0x3
   884  0023                     	ds	1
   885  0024                     ?_itoa:
   886  0024                     itoa@val:	
   887                           ; 1 bytes @ 0x4
   888                           
   889                           
   890                           ; 2 bytes @ 0x4
   891  0024                     	ds	2
   892  0026                     itoa@base:
   893                           
   894                           ; 2 bytes @ 0x6
   895  0026                     	ds	2
   896  0028                     itoa@buf:
   897                           
   898                           ; 1 bytes @ 0x8
   899  0028                     	ds	1
   900  0029                     ??_set_estado:
   901                           
   902                           ; 1 bytes @ 0x9
   903  0029                     	ds	2
   904  002B                     ??_isr:
   905                           
   906                           ; 1 bytes @ 0xB
   907  002B                     	ds	5
   908  0030                     ??_setup:
   909  0030                     ?_impresion:	
   910                           ; 1 bytes @ 0x10
   911                           
   912  0030                     impresion@txt:	
   913                           ; 1 bytes @ 0x10
   914                           
   915                           
   916                           ; 2 bytes @ 0x10
   917  0030                     	ds	2
   918  0032                     ??_impresion:
   919                           
   920                           ; 1 bytes @ 0x12
   921  0032                     	ds	1
   922  0033                     impresion@i:
   923                           
   924                           ; 1 bytes @ 0x13
   925  0033                     	ds	1
   926  0034                     ??_main:
   927                           
   928                           	psect	maintext
   929  04A5                     __pmaintext:	
   930                           ; 1 bytes @ 0x14
   931 ;;
   932 ;;Main: autosize = 0, tempsize = 0, incstack = 0, save=0
   933 ;;
   934 ;; *************** function _main *****************
   935 ;; Defined at:
   936 ;;		line 78 in file "main_Postlab.c"
   937 ;; Parameters:    Size  Location     Type
   938 ;;		None
   939 ;; Auto vars:     Size  Location     Type
   940 ;;		None
   941 ;; Return value:  Size  Location     Type
   942 ;;                  1    wreg      void 
   943 ;; Registers used:
   944 ;;		wreg, fsr0l, fsr0h, status,2, status,0, btemp+1, pclath, cstack
   945 ;; Tracked objects:
   946 ;;		On entry : B00/0
   947 ;;		On exit  : 0/0
   948 ;;		Unchanged: 0/0
   949 ;; Data sizes:     COMMON   BANK0   BANK1   BANK3   BANK2
   950 ;;      Params:         0       0       0       0       0
   951 ;;      Locals:         0       0       0       0       0
   952 ;;      Temps:          0       0       0       0       0
   953 ;;      Totals:         0       0       0       0       0
   954 ;;Total ram usage:        0 bytes
   955 ;; Hardware stack levels required when called: 6
   956 ;; This function calls:
   957 ;;		_impresion
   958 ;;		_setup
   959 ;; This function is called by:
   960 ;;		Startup code after reset
   961 ;; This function uses a non-reentrant model
   962 ;;
   963                           
   964  04A5                     _main:	
   965                           ;psect for function _main
   966                           
   967  04A5                     l1342:	
   968                           ;incstack = 0
   969                           ; Regs used in _main: [wreg-fsr0h+status,2+status,0+btemp+1+pclath+cstack]
   970                           
   971                           
   972                           ;main_Postlab.c: 80:     setup();
   973  04A5  120A  118A  2406  120A  118A  	fcall	_setup
   974  04AA                     l1344:
   975                           
   976                           ;main_Postlab.c: 83:             if(ADCON0bits.GO == 0){
   977  04AA  1283               	bcf	3,5	;RP0=0, select bank0
   978  04AB  1303               	bcf	3,6	;RP1=0, select bank0
   979  04AC  189F               	btfsc	31,1	;volatile
   980  04AD  2CAF               	goto	u961
   981  04AE  2CB0               	goto	u960
   982  04AF                     u961:
   983  04AF  2CB1               	goto	l1348
   984  04B0                     u960:
   985  04B0                     l1346:
   986                           
   987                           ;main_Postlab.c: 84:             ADCON0bits.GO = 1;
   988  04B0  149F               	bsf	31,1	;volatile
   989  04B1                     l1348:
   990                           
   991                           ;main_Postlab.c: 86:             if(estado == 0){
   992  04B1  0838               	movf	_estado,w
   993  04B2  0439               	iorwf	_estado+1,w
   994  04B3  1D03               	btfss	3,2
   995  04B4  2CB6               	goto	u971
   996  04B5  2CB7               	goto	u970
   997  04B6                     u971:
   998  04B6  2CC6               	goto	l1354
   999  04B7                     u970:
  1000  04B7                     l1350:
  1001                           
  1002                           ;main_Postlab.c: 87:                 impresion(pregunta_1);
  1003  04B7  3090               	movlw	(low (_pregunta_1| (0+256)))& (0+255)
  1004  04B8  00B0               	movwf	impresion@txt
  1005  04B9  3001               	movlw	1
  1006  04BA  00B1               	movwf	impresion@txt+1
  1007  04BB  120A  118A  2569  120A  118A  	fcall	_impresion
  1008  04C0                     l1352:
  1009                           
  1010                           ;main_Postlab.c: 88:                 estado = 1;
  1011  04C0  3001               	movlw	1
  1012  04C1  1283               	bcf	3,5	;RP0=0, select bank0
  1013  04C2  1303               	bcf	3,6	;RP1=0, select bank0
  1014  04C3  00B8               	movwf	_estado
  1015  04C4  3000               	movlw	0
  1016  04C5  00B9               	movwf	_estado+1
  1017  04C6                     l1354:
  1018                           
  1019                           ;main_Postlab.c: 90:             if(estado == 2){
  1020  04C6  3002               	movlw	2
  1021  04C7  0638               	xorwf	_estado,w
  1022  04C8  0439               	iorwf	_estado+1,w
  1023  04C9  1D03               	btfss	3,2
  1024  04CA  2CCC               	goto	u981
  1025  04CB  2CCD               	goto	u980
  1026  04CC                     u981:
  1027  04CC  2CAA               	goto	l1344
  1028  04CD                     u980:
  1029  04CD                     l1356:
  1030                           
  1031                           ;main_Postlab.c: 91:                 impresion(pregunta_2);
  1032  04CD  30A0               	movlw	(low (_pregunta_2| 0))& (0+255)
  1033  04CE  00B0               	movwf	impresion@txt
  1034  04CF  3000               	movlw	0
  1035  04D0  00B1               	movwf	impresion@txt+1
  1036  04D1  120A  118A  2569  120A  118A  	fcall	_impresion
  1037                           
  1038                           ;main_Postlab.c: 92:                 impresion("Presione la barra espaciadora cuando est
      +                          é listo \n\r\n\r");
  1039  04D6  3001               	movlw	(low ((STR_1-__stringbase)| (0+32768)))& (0+255)
  1040  04D7  1283               	bcf	3,5	;RP0=0, select bank0
  1041  04D8  1303               	bcf	3,6	;RP1=0, select bank0
  1042  04D9  00B0               	movwf	impresion@txt
  1043  04DA  3080               	movlw	128
  1044  04DB  00B1               	movwf	impresion@txt+1
  1045  04DC  120A  118A  2569  120A  118A  	fcall	_impresion
  1046  04E1                     l1358:
  1047                           
  1048                           ;main_Postlab.c: 93:                 estado = 3;
  1049  04E1  3003               	movlw	3
  1050  04E2  1283               	bcf	3,5	;RP0=0, select bank0
  1051  04E3  1303               	bcf	3,6	;RP1=0, select bank0
  1052  04E4  00B8               	movwf	_estado
  1053  04E5  3000               	movlw	0
  1054  04E6  00B9               	movwf	_estado+1
  1055  04E7  2CAA               	goto	l1344
  1056  04E8  120A  118A  2812   	ljmp	start
  1057  04EB                     __end_of_main:
  1058                           
  1059                           	psect	text1
  1060  0406                     __ptext1:	
  1061 ;; *************** function _setup *****************
  1062 ;; Defined at:
  1063 ;;		line 99 in file "main_Postlab.c"
  1064 ;; Parameters:    Size  Location     Type
  1065 ;;		None
  1066 ;; Auto vars:     Size  Location     Type
  1067 ;;		None
  1068 ;; Return value:  Size  Location     Type
  1069 ;;                  1    wreg      void 
  1070 ;; Registers used:
  1071 ;;		wreg, status,2, status,0
  1072 ;; Tracked objects:
  1073 ;;		On entry : 0/0
  1074 ;;		On exit  : 0/0
  1075 ;;		Unchanged: 0/0
  1076 ;; Data sizes:     COMMON   BANK0   BANK1   BANK3   BANK2
  1077 ;;      Params:         0       0       0       0       0
  1078 ;;      Locals:         0       0       0       0       0
  1079 ;;      Temps:          0       1       0       0       0
  1080 ;;      Totals:         0       1       0       0       0
  1081 ;;Total ram usage:        1 bytes
  1082 ;; Hardware stack levels used: 1
  1083 ;; Hardware stack levels required when called: 5
  1084 ;; This function calls:
  1085 ;;		Nothing
  1086 ;; This function is called by:
  1087 ;;		_main
  1088 ;; This function uses a non-reentrant model
  1089 ;;
  1090                           
  1091  0406                     _setup:	
  1092                           ;psect for function _setup
  1093                           
  1094  0406                     l1266:	
  1095                           ;incstack = 0
  1096                           ; Regs used in _setup: [wreg+status,2+status,0]
  1097                           
  1098                           
  1099                           ;main_Postlab.c: 100:     ANSEL = 0x01;
  1100  0406  3001               	movlw	1
  1101  0407  1683               	bsf	3,5	;RP0=1, select bank3
  1102  0408  1703               	bsf	3,6	;RP1=1, select bank3
  1103  0409  0088               	movwf	8	;volatile
  1104  040A                     l1268:
  1105                           
  1106                           ;main_Postlab.c: 101:     ANSELH = 0;
  1107  040A  0189               	clrf	9	;volatile
  1108  040B                     l1270:
  1109                           
  1110                           ;main_Postlab.c: 103:     TRISA = 0x01;
  1111  040B  3001               	movlw	1
  1112  040C  1683               	bsf	3,5	;RP0=1, select bank1
  1113  040D  1303               	bcf	3,6	;RP1=0, select bank1
  1114  040E  0085               	movwf	5	;volatile
  1115                           
  1116                           ;main_Postlab.c: 104:     PORTA = 0;
  1117  040F  1283               	bcf	3,5	;RP0=0, select bank0
  1118  0410  1303               	bcf	3,6	;RP1=0, select bank0
  1119  0411  0185               	clrf	5	;volatile
  1120                           
  1121                           ;main_Postlab.c: 105:     TRISD = 0;
  1122  0412  1683               	bsf	3,5	;RP0=1, select bank1
  1123  0413  1303               	bcf	3,6	;RP1=0, select bank1
  1124  0414  0188               	clrf	8	;volatile
  1125                           
  1126                           ;main_Postlab.c: 106:     PORTD = 0;
  1127  0415  1283               	bcf	3,5	;RP0=0, select bank0
  1128  0416  1303               	bcf	3,6	;RP1=0, select bank0
  1129  0417  0188               	clrf	8	;volatile
  1130  0418                     l1272:
  1131                           
  1132                           ;main_Postlab.c: 108:     OSCCONbits.IRCF = 0b100;
  1133  0418  1683               	bsf	3,5	;RP0=1, select bank1
  1134  0419  1303               	bcf	3,6	;RP1=0, select bank1
  1135  041A  080F               	movf	15,w	;volatile
  1136  041B  398F               	andlw	-113
  1137  041C  3840               	iorlw	64
  1138  041D  008F               	movwf	15	;volatile
  1139  041E                     l1274:
  1140                           
  1141                           ;main_Postlab.c: 109:     OSCCONbits.SCS = 1;
  1142  041E  140F               	bsf	15,0	;volatile
  1143  041F                     l1276:
  1144                           
  1145                           ;main_Postlab.c: 113:     TXSTAbits.SYNC = 0;
  1146  041F  1218               	bcf	24,4	;volatile
  1147  0420                     l1278:
  1148                           
  1149                           ;main_Postlab.c: 114:     TXSTAbits.BRGH = 1;
  1150  0420  1518               	bsf	24,2	;volatile
  1151  0421                     l1280:
  1152                           
  1153                           ;main_Postlab.c: 115:     BAUDCTLbits.BRG16 = 1;
  1154  0421  1683               	bsf	3,5	;RP0=1, select bank3
  1155  0422  1703               	bsf	3,6	;RP1=1, select bank3
  1156  0423  1587               	bsf	7,3	;volatile
  1157  0424                     l1282:
  1158                           
  1159                           ;main_Postlab.c: 116:     SPBRGH = 0;
  1160  0424  1683               	bsf	3,5	;RP0=1, select bank1
  1161  0425  1303               	bcf	3,6	;RP1=0, select bank1
  1162  0426  019A               	clrf	26	;volatile
  1163  0427                     l1284:
  1164                           
  1165                           ;main_Postlab.c: 117:     SPBRG = 25;
  1166  0427  3019               	movlw	25
  1167  0428  0099               	movwf	25	;volatile
  1168  0429                     l1286:
  1169                           
  1170                           ;main_Postlab.c: 119:     RCSTAbits.SPEN = 1;
  1171  0429  1283               	bcf	3,5	;RP0=0, select bank0
  1172  042A  1303               	bcf	3,6	;RP1=0, select bank0
  1173  042B  1798               	bsf	24,7	;volatile
  1174  042C                     l1288:
  1175                           
  1176                           ;main_Postlab.c: 120:     RCSTAbits.RX9 = 0;
  1177  042C  1318               	bcf	24,6	;volatile
  1178  042D                     l1290:
  1179                           
  1180                           ;main_Postlab.c: 122:     TXSTAbits.TXEN = 1;
  1181  042D  1683               	bsf	3,5	;RP0=1, select bank1
  1182  042E  1303               	bcf	3,6	;RP1=0, select bank1
  1183  042F  1698               	bsf	24,5	;volatile
  1184  0430                     l1292:
  1185                           
  1186                           ;main_Postlab.c: 123:     RCSTAbits.CREN = 1;
  1187  0430  1283               	bcf	3,5	;RP0=0, select bank0
  1188  0431  1303               	bcf	3,6	;RP1=0, select bank0
  1189  0432  1618               	bsf	24,4	;volatile
  1190  0433                     l1294:
  1191                           
  1192                           ;main_Postlab.c: 126:     ADCON0bits.ADCS = 0b00;
  1193  0433  303F               	movlw	-193
  1194  0434  059F               	andwf	31,f	;volatile
  1195  0435                     l1296:
  1196                           
  1197                           ;main_Postlab.c: 127:     ADCON1bits.VCFG0 = 0;
  1198  0435  1683               	bsf	3,5	;RP0=1, select bank1
  1199  0436  1303               	bcf	3,6	;RP1=0, select bank1
  1200  0437  121F               	bcf	31,4	;volatile
  1201  0438                     l1298:
  1202                           
  1203                           ;main_Postlab.c: 128:     ADCON1bits.VCFG1 = 0;
  1204  0438  129F               	bcf	31,5	;volatile
  1205  0439                     l1300:
  1206                           
  1207                           ;main_Postlab.c: 129:     ADCON0bits.CHS = 0b0000;
  1208  0439  30C3               	movlw	-61
  1209  043A  1283               	bcf	3,5	;RP0=0, select bank0
  1210  043B  1303               	bcf	3,6	;RP1=0, select bank0
  1211  043C  059F               	andwf	31,f	;volatile
  1212  043D                     l1302:
  1213                           
  1214                           ;main_Postlab.c: 130:     ADCON1bits.ADFM = 0;
  1215  043D  1683               	bsf	3,5	;RP0=1, select bank1
  1216  043E  1303               	bcf	3,6	;RP1=0, select bank1
  1217  043F  139F               	bcf	31,7	;volatile
  1218  0440                     l1304:
  1219                           
  1220                           ;main_Postlab.c: 131:     ADCON0bits.ADON = 1;
  1221  0440  1283               	bcf	3,5	;RP0=0, select bank0
  1222  0441  1303               	bcf	3,6	;RP1=0, select bank0
  1223  0442  141F               	bsf	31,0	;volatile
  1224  0443                     l1306:
  1225                           
  1226                           ;main_Postlab.c: 132:     _delay((unsigned long)((40)*(1000000/4000000.0)));
  1227  0443  3002               	movlw	2
  1228  0444  1283               	bcf	3,5	;RP0=0, select bank0
  1229  0445  1303               	bcf	3,6	;RP1=0, select bank0
  1230  0446  00B0               	movwf	??_setup
  1231  0447                     u997:
  1232  0447  0BB0               	decfsz	??_setup,f
  1233  0448  2C47               	goto	u997
  1234  0449  0000               	nop
  1235  044A                     l1308:
  1236                           
  1237                           ;main_Postlab.c: 135:     INTCONbits.GIE = 1;
  1238  044A  178B               	bsf	11,7	;volatile
  1239  044B                     l1310:
  1240                           
  1241                           ;main_Postlab.c: 136:     INTCONbits.PEIE = 1;
  1242  044B  170B               	bsf	11,6	;volatile
  1243  044C                     l1312:
  1244                           
  1245                           ;main_Postlab.c: 137:     PIE1bits.ADIE = 1;
  1246  044C  1683               	bsf	3,5	;RP0=1, select bank1
  1247  044D  1303               	bcf	3,6	;RP1=0, select bank1
  1248  044E  170C               	bsf	12,6	;volatile
  1249  044F                     l1314:
  1250                           
  1251                           ;main_Postlab.c: 138:     PIR1bits.ADIF = 0;
  1252  044F  1283               	bcf	3,5	;RP0=0, select bank0
  1253  0450  1303               	bcf	3,6	;RP1=0, select bank0
  1254  0451  130C               	bcf	12,6	;volatile
  1255  0452                     l1316:
  1256                           
  1257                           ;main_Postlab.c: 139:     PIE1bits.RCIE = 1;
  1258  0452  1683               	bsf	3,5	;RP0=1, select bank1
  1259  0453  1303               	bcf	3,6	;RP1=0, select bank1
  1260  0454  168C               	bsf	12,5	;volatile
  1261  0455                     l86:
  1262  0455  0008               	return
  1263  0456                     __end_of_setup:
  1264                           
  1265                           	psect	text2
  1266  0569                     __ptext2:	
  1267 ;; *************** function _impresion *****************
  1268 ;; Defined at:
  1269 ;;		line 189 in file "main_Postlab.c"
  1270 ;; Parameters:    Size  Location     Type
  1271 ;;  txt             2   16[BANK0 ] PTR unsigned char 
  1272 ;;		 -> STR_10(4), STR_9(28), STR_8(2), STR_7(29), 
  1273 ;;		 -> STR_6(4), STR_5(4), STR_4(19), val_imp(1), 
  1274 ;;		 -> STR_3(41), STR_2(4), STR_1(53), pregunta_2(79), 
  1275 ;;		 -> pregunta_1(95), 
  1276 ;; Auto vars:     Size  Location     Type
  1277 ;;  i               1   19[BANK0 ] unsigned char 
  1278 ;; Return value:  Size  Location     Type
  1279 ;;                  1    wreg      void 
  1280 ;; Registers used:
  1281 ;;		wreg, fsr0l, fsr0h, status,2, status,0, btemp+1, pclath
  1282 ;; Tracked objects:
  1283 ;;		On entry : 0/0
  1284 ;;		On exit  : 0/0
  1285 ;;		Unchanged: 0/0
  1286 ;; Data sizes:     COMMON   BANK0   BANK1   BANK3   BANK2
  1287 ;;      Params:         0       2       0       0       0
  1288 ;;      Locals:         0       1       0       0       0
  1289 ;;      Temps:          0       1       0       0       0
  1290 ;;      Totals:         0       4       0       0       0
  1291 ;;Total ram usage:        4 bytes
  1292 ;; Hardware stack levels used: 1
  1293 ;; Hardware stack levels required when called: 5
  1294 ;; This function calls:
  1295 ;;		Nothing
  1296 ;; This function is called by:
  1297 ;;		_main
  1298 ;; This function uses a non-reentrant model
  1299 ;;
  1300                           
  1301  0569                     _impresion:	
  1302                           ;psect for function _impresion
  1303                           
  1304  0569                     l1320:	
  1305                           ;incstack = 0
  1306                           ; Regs used in _impresion: [wreg-fsr0h+status,2+status,0+btemp+1+pclath]
  1307                           
  1308                           
  1309                           ;main_Postlab.c: 190:     uint8_t i = 0;
  1310  0569  1283               	bcf	3,5	;RP0=0, select bank0
  1311  056A  1303               	bcf	3,6	;RP1=0, select bank0
  1312  056B  01B3               	clrf	impresion@i
  1313                           
  1314                           ;main_Postlab.c: 191:     while(txt[i] != '\0'){
  1315  056C  2D82               	goto	l1326
  1316  056D                     l107:
  1317                           
  1318                           ;main_Postlab.c: 192:         if(PIR1bits.TXIF){
  1319  056D  1E0C               	btfss	12,4	;volatile
  1320  056E  2D70               	goto	u911
  1321  056F  2D71               	goto	u910
  1322  0570                     u911:
  1323  0570  2D82               	goto	l1326
  1324  0571                     u910:
  1325  0571                     l1322:
  1326                           
  1327                           ;main_Postlab.c: 193:             TXREG = txt[i];
  1328  0571  0833               	movf	impresion@i,w
  1329  0572  0730               	addwf	impresion@txt,w
  1330  0573  0084               	movwf	4
  1331  0574  0831               	movf	impresion@txt+1,w
  1332  0575  1803               	skipnc
  1333  0576  0A31               	incf	impresion@txt+1,w
  1334  0577  00FF               	movwf	btemp+1
  1335  0578  120A  118A  2200  120A  118A  	fcall	stringtab
  1336  057D  0099               	movwf	25	;volatile
  1337  057E                     l1324:
  1338                           
  1339                           ;main_Postlab.c: 194:             i++;
  1340  057E  3001               	movlw	1
  1341  057F  00B2               	movwf	??_impresion
  1342  0580  0832               	movf	??_impresion,w
  1343  0581  07B3               	addwf	impresion@i,f
  1344  0582                     l1326:
  1345                           
  1346                           ;main_Postlab.c: 191:     while(txt[i] != '\0'){
  1347  0582  0833               	movf	impresion@i,w
  1348  0583  0730               	addwf	impresion@txt,w
  1349  0584  0084               	movwf	4
  1350  0585  0831               	movf	impresion@txt+1,w
  1351  0586  1803               	skipnc
  1352  0587  0A31               	incf	impresion@txt+1,w
  1353  0588  00FF               	movwf	btemp+1
  1354  0589  120A  118A  2200  120A  118A  	fcall	stringtab
  1355  058E  3A00               	xorlw	0
  1356  058F  1D03               	skipz
  1357  0590  2D92               	goto	u921
  1358  0591  2D93               	goto	u920
  1359  0592                     u921:
  1360  0592  2D6D               	goto	l107
  1361  0593                     u920:
  1362  0593                     l110:
  1363  0593  0008               	return
  1364  0594                     __end_of_impresion:
  1365                           
  1366                           	psect	text3
  1367  05BF                     __ptext3:	
  1368 ;; *************** function _isr *****************
  1369 ;; Defined at:
  1370 ;;		line 63 in file "main_Postlab.c"
  1371 ;; Parameters:    Size  Location     Type
  1372 ;;		None
  1373 ;; Auto vars:     Size  Location     Type
  1374 ;;		None
  1375 ;; Return value:  Size  Location     Type
  1376 ;;                  1    wreg      void 
  1377 ;; Registers used:
  1378 ;;		wreg, fsr0l, fsr0h, status,2, status,0, btemp+1, pclath, cstack
  1379 ;; Tracked objects:
  1380 ;;		On entry : 0/0
  1381 ;;		On exit  : 0/0
  1382 ;;		Unchanged: 0/0
  1383 ;; Data sizes:     COMMON   BANK0   BANK1   BANK3   BANK2
  1384 ;;      Params:         0       0       0       0       0
  1385 ;;      Locals:         0       0       0       0       0
  1386 ;;      Temps:          0       5       0       0       0
  1387 ;;      Totals:         0       5       0       0       0
  1388 ;;Total ram usage:        5 bytes
  1389 ;; Hardware stack levels used: 1
  1390 ;; Hardware stack levels required when called: 4
  1391 ;; This function calls:
  1392 ;;		_set_estado
  1393 ;; This function is called by:
  1394 ;;		Interrupt level 1
  1395 ;; This function uses a non-reentrant model
  1396 ;;
  1397                           
  1398  05BF                     _isr:	
  1399                           ;psect for function _isr
  1400                           
  1401  05BF                     i1l1328:
  1402                           
  1403                           ;main_Postlab.c: 65:     if (PIR1bits.ADIF){
  1404  05BF  1F0C               	btfss	12,6	;volatile
  1405  05C0  2DC2               	goto	u93_21
  1406  05C1  2DC3               	goto	u93_20
  1407  05C2                     u93_21:
  1408  05C2  2DD1               	goto	i1l1336
  1409  05C3                     u93_20:
  1410  05C3                     i1l1330:
  1411                           
  1412                           ;main_Postlab.c: 66:         if (ADCON0bits.CHS == 0){
  1413  05C3  0C1F               	rrf	31,w	;volatile
  1414  05C4  00AB               	movwf	??_isr
  1415  05C5  0C2B               	rrf	??_isr,w
  1416  05C6  390F               	andlw	15
  1417  05C7  3A00               	xorlw	0
  1418  05C8  1D03               	skipz
  1419  05C9  2DCB               	goto	u94_21
  1420  05CA  2DCC               	goto	u94_20
  1421  05CB                     u94_21:
  1422  05CB  2DD0               	goto	i1l1334
  1423  05CC                     u94_20:
  1424  05CC                     i1l1332:
  1425                           
  1426                           ;main_Postlab.c: 67:             val_pot = ADRESH;
  1427  05CC  081E               	movf	30,w	;volatile
  1428  05CD  00AB               	movwf	??_isr
  1429  05CE  082B               	movf	??_isr,w
  1430  05CF  00BA               	movwf	_val_pot
  1431  05D0                     i1l1334:
  1432                           
  1433                           ;main_Postlab.c: 69:         PIR1bits.ADIF = 0;
  1434  05D0  130C               	bcf	12,6	;volatile
  1435  05D1                     i1l1336:
  1436                           
  1437                           ;main_Postlab.c: 72:     if(PIR1bits.RCIF){
  1438  05D1  1E8C               	btfss	12,5	;volatile
  1439  05D2  2DD4               	goto	u95_21
  1440  05D3  2DD5               	goto	u95_20
  1441  05D4                     u95_21:
  1442  05D4  2DDA               	goto	i1l72
  1443  05D5                     u95_20:
  1444  05D5                     i1l1338:
  1445                           
  1446                           ;main_Postlab.c: 73:         set_estado();
  1447  05D5  120A  118A  203D  120A  118A  	fcall	_set_estado
  1448  05DA                     i1l72:
  1449  05DA  1283               	bcf	3,5	;RP0=0, select bank0
  1450  05DB  1303               	bcf	3,6	;RP1=0, select bank0
  1451  05DC  082F               	movf	??_isr+4,w
  1452  05DD  00FF               	movwf	btemp+1
  1453  05DE  082E               	movf	??_isr+3,w
  1454  05DF  008A               	movwf	10
  1455  05E0  082D               	movf	??_isr+2,w
  1456  05E1  0084               	movwf	4
  1457  05E2  0E2C               	swapf	??_isr+1,w
  1458  05E3  0083               	movwf	3
  1459  05E4  0EFE               	swapf	btemp,f
  1460  05E5  0E7E               	swapf	btemp,w
  1461  05E6  0009               	retfie
  1462  05E7                     __end_of_isr:
  1463                           
  1464                           	psect	intentry
  1465  0004                     __pintentry:	
  1466                           ;incstack = 0
  1467                           ; Regs used in _isr: [wreg-fsr0h+status,2+status,0+btemp+1+pclath+cstack]
  1468                           
  1469  0004                     interrupt_function:
  1470  007E                     saved_w	set	btemp
  1471  0004  00FE               	movwf	btemp
  1472  0005  0E03               	swapf	3,w
  1473  0006  1283               	bcf	3,5	;RP0=0, select bank0
  1474  0007  1303               	bcf	3,6	;RP1=0, select bank0
  1475  0008  00AC               	movwf	??_isr+1
  1476  0009  0804               	movf	4,w
  1477  000A  00AD               	movwf	??_isr+2
  1478  000B  080A               	movf	10,w
  1479  000C  00AE               	movwf	??_isr+3
  1480  000D  087F               	movf	btemp+1,w
  1481  000E  00AF               	movwf	??_isr+4
  1482  000F  120A  118A  2DBF   	ljmp	_isr
  1483                           
  1484                           	psect	text4
  1485  003D                     __ptext4:	
  1486 ;; *************** function _set_estado *****************
  1487 ;; Defined at:
  1488 ;;		line 143 in file "main_Postlab.c"
  1489 ;; Parameters:    Size  Location     Type
  1490 ;;		None
  1491 ;; Auto vars:     Size  Location     Type
  1492 ;;		None
  1493 ;; Return value:  Size  Location     Type
  1494 ;;                  1    wreg      void 
  1495 ;; Registers used:
  1496 ;;		wreg, fsr0l, fsr0h, status,2, status,0, btemp+1, pclath, cstack
  1497 ;; Tracked objects:
  1498 ;;		On entry : 0/0
  1499 ;;		On exit  : 0/0
  1500 ;;		Unchanged: 0/0
  1501 ;; Data sizes:     COMMON   BANK0   BANK1   BANK3   BANK2
  1502 ;;      Params:         0       0       0       0       0
  1503 ;;      Locals:         0       0       0       0       0
  1504 ;;      Temps:          0       2       0       0       0
  1505 ;;      Totals:         0       2       0       0       0
  1506 ;;Total ram usage:        2 bytes
  1507 ;; Hardware stack levels used: 1
  1508 ;; Hardware stack levels required when called: 3
  1509 ;; This function calls:
  1510 ;;		___awdiv
  1511 ;;		___wmul
  1512 ;;		_itoa
  1513 ;;		i1_impresion
  1514 ;; This function is called by:
  1515 ;;		_isr
  1516 ;; This function uses a non-reentrant model
  1517 ;;
  1518                           
  1519  003D                     _set_estado:	
  1520                           ;psect for function _set_estado
  1521                           
  1522  003D                     i1l1196:	
  1523                           ;incstack = 0
  1524                           ; Regs used in _set_estado: [wreg-fsr0h+status,2+status,0+btemp+1+pclath+cstack]
  1525                           
  1526                           
  1527                           ;main_Postlab.c: 144:     if(estado == 1){
  1528  003D  1283               	bcf	3,5	;RP0=0, select bank0
  1529  003E  1303               	bcf	3,6	;RP1=0, select bank0
  1530  003F  0338               	decf	_estado,w
  1531  0040  0439               	iorwf	_estado+1,w
  1532  0041  1D03               	btfss	3,2
  1533  0042  2844               	goto	u83_21
  1534  0043  2845               	goto	u83_20
  1535  0044                     u83_21:
  1536  0044  2903               	goto	i1l1232
  1537  0045                     u83_20:
  1538  0045                     i1l1198:
  1539                           
  1540                           ;main_Postlab.c: 145:         if(RCREG == 0b110001){
  1541  0045  3031               	movlw	49
  1542  0046  061A               	xorwf	26,w	;volatile
  1543  0047  1D03               	btfss	3,2
  1544  0048  284A               	goto	u84_21
  1545  0049  284B               	goto	u84_20
  1546  004A                     u84_21:
  1547  004A  28C8               	goto	i1l1212
  1548  004B                     u84_20:
  1549  004B                     i1l1200:
  1550                           
  1551                           ;main_Postlab.c: 146:             impresion ("1\n\r");
  1552  004B  30B3               	movlw	(low ((STR_2-__stringbase)| (0+32768)))& (0+255)
  1553  004C  00F0               	movwf	i1impresion@txt
  1554  004D  3080               	movlw	128
  1555  004E  00F1               	movwf	i1impresion@txt+1
  1556  004F  120A  118A  2594  120A  118A  	fcall	i1_impresion
  1557                           
  1558                           ;main_Postlab.c: 148:             impresion ("\n\rEl valor actual del potenciómetro es: 
      +                          ");
  1559  0054  3036               	movlw	(low ((STR_3-__stringbase)| (0+32768)))& (0+255)
  1560  0055  00F0               	movwf	i1impresion@txt
  1561  0056  3080               	movlw	128
  1562  0057  00F1               	movwf	i1impresion@txt+1
  1563  0058  120A  118A  2594  120A  118A  	fcall	i1_impresion
  1564  005D                     i1l1202:
  1565                           
  1566                           ;main_Postlab.c: 149:             itoa(val_imp,val_pot,10);
  1567  005D  1283               	bcf	3,5	;RP0=0, select bank0
  1568  005E  1303               	bcf	3,6	;RP1=0, select bank0
  1569  005F  083A               	movf	_val_pot,w
  1570  0060  00A9               	movwf	??_set_estado
  1571  0061  01AA               	clrf	??_set_estado+1
  1572  0062  0829               	movf	??_set_estado,w
  1573  0063  00A4               	movwf	itoa@val
  1574  0064  082A               	movf	??_set_estado+1,w
  1575  0065  00A5               	movwf	itoa@val+1
  1576  0066  300A               	movlw	10
  1577  0067  00A6               	movwf	itoa@base
  1578  0068  3000               	movlw	0
  1579  0069  00A7               	movwf	itoa@base+1
  1580  006A  303B               	movlw	(low (_val_imp| 0))& (0+255)
  1581  006B  120A  118A  25E7  120A  118A  	fcall	_itoa
  1582  0070                     i1l1204:
  1583                           
  1584                           ;main_Postlab.c: 150:             impresion (val_imp);
  1585  0070  303B               	movlw	(low (_val_imp| 0))& (0+255)
  1586  0071  00F0               	movwf	i1impresion@txt
  1587  0072  3000               	movlw	0
  1588  0073  00F1               	movwf	i1impresion@txt+1
  1589  0074  120A  118A  2594  120A  118A  	fcall	i1_impresion
  1590  0079                     i1l1206:
  1591                           
  1592                           ;main_Postlab.c: 151:             impresion (" que equivale al ~");
  1593  0079  3098               	movlw	(low ((STR_4-__stringbase)| (0+32768)))& (0+255)
  1594  007A  00F0               	movwf	i1impresion@txt
  1595  007B  3080               	movlw	128
  1596  007C  00F1               	movwf	i1impresion@txt+1
  1597  007D  120A  118A  2594  120A  118A  	fcall	i1_impresion
  1598  0082                     i1l1208:
  1599                           
  1600                           ;main_Postlab.c: 153:             itoa(val_imp,(val_pot*20/51),10);
  1601  0082  3033               	movlw	51
  1602  0083  00F6               	movwf	___awdiv@divisor
  1603  0084  3000               	movlw	0
  1604  0085  00F7               	movwf	___awdiv@divisor+1
  1605  0086  1283               	bcf	3,5	;RP0=0, select bank0
  1606  0087  1303               	bcf	3,6	;RP1=0, select bank0
  1607  0088  083A               	movf	_val_pot,w
  1608  0089  00A9               	movwf	??_set_estado
  1609  008A  01AA               	clrf	??_set_estado+1
  1610  008B  0829               	movf	??_set_estado,w
  1611  008C  00F0               	movwf	___wmul@multiplier
  1612  008D  082A               	movf	??_set_estado+1,w
  1613  008E  00F1               	movwf	___wmul@multiplier+1
  1614  008F  3014               	movlw	20
  1615  0090  00F2               	movwf	___wmul@multiplicand
  1616  0091  3000               	movlw	0
  1617  0092  00F3               	movwf	___wmul@multiplicand+1
  1618  0093  120A  118A  260D  120A  118A  	fcall	___wmul
  1619  0098  0871               	movf	?___wmul+1,w
  1620  0099  00F9               	movwf	___awdiv@dividend+1
  1621  009A  0870               	movf	?___wmul,w
  1622  009B  00F8               	movwf	___awdiv@dividend
  1623  009C  120A  118A  233E  120A  118A  	fcall	___awdiv
  1624  00A1  0877               	movf	?___awdiv+1,w
  1625  00A2  1283               	bcf	3,5	;RP0=0, select bank0
  1626  00A3  1303               	bcf	3,6	;RP1=0, select bank0
  1627  00A4  00A5               	movwf	itoa@val+1
  1628  00A5  0876               	movf	?___awdiv,w
  1629  00A6  00A4               	movwf	itoa@val
  1630  00A7  300A               	movlw	10
  1631  00A8  00A6               	movwf	itoa@base
  1632  00A9  3000               	movlw	0
  1633  00AA  00A7               	movwf	itoa@base+1
  1634  00AB  303B               	movlw	(low (_val_imp| 0))& (0+255)
  1635  00AC  120A  118A  25E7  120A  118A  	fcall	_itoa
  1636                           
  1637                           ;main_Postlab.c: 154:             impresion (val_imp);
  1638  00B1  303B               	movlw	(low (_val_imp| 0))& (0+255)
  1639  00B2  00F0               	movwf	i1impresion@txt
  1640  00B3  3000               	movlw	0
  1641  00B4  00F1               	movwf	i1impresion@txt+1
  1642  00B5  120A  118A  2594  120A  118A  	fcall	i1_impresion
  1643                           
  1644                           ;main_Postlab.c: 155:             impresion ("%\n\r");
  1645  00BA  30AB               	movlw	(low ((STR_5-__stringbase)| (0+32768)))& (0+255)
  1646  00BB  00F0               	movwf	i1impresion@txt
  1647  00BC  3080               	movlw	128
  1648  00BD  00F1               	movwf	i1impresion@txt+1
  1649  00BE  120A  118A  2594  120A  118A  	fcall	i1_impresion
  1650  00C3                     i1l1210:
  1651                           
  1652                           ;main_Postlab.c: 157:             estado = 0;
  1653  00C3  1283               	bcf	3,5	;RP0=0, select bank0
  1654  00C4  1303               	bcf	3,6	;RP1=0, select bank0
  1655  00C5  01B8               	clrf	_estado
  1656  00C6  01B9               	clrf	_estado+1
  1657                           
  1658                           ;main_Postlab.c: 158:         }
  1659  00C7  2903               	goto	i1l1232
  1660  00C8                     i1l1212:
  1661  00C8  3032               	movlw	50
  1662  00C9  061A               	xorwf	26,w	;volatile
  1663  00CA  1D03               	btfss	3,2
  1664  00CB  28CD               	goto	u85_21
  1665  00CC  28CE               	goto	u85_20
  1666  00CD                     u85_21:
  1667  00CD  28DE               	goto	i1l1218
  1668  00CE                     u85_20:
  1669  00CE                     i1l1214:
  1670                           
  1671                           ;main_Postlab.c: 160:             impresion ("2\n\r");
  1672  00CE  30B7               	movlw	(low ((STR_6-__stringbase)| (0+32768)))& (0+255)
  1673  00CF  00F0               	movwf	i1impresion@txt
  1674  00D0  3080               	movlw	128
  1675  00D1  00F1               	movwf	i1impresion@txt+1
  1676  00D2  120A  118A  2594  120A  118A  	fcall	i1_impresion
  1677  00D7                     i1l1216:
  1678                           
  1679                           ;main_Postlab.c: 161:             estado = 2;
  1680  00D7  3002               	movlw	2
  1681  00D8  1283               	bcf	3,5	;RP0=0, select bank0
  1682  00D9  1303               	bcf	3,6	;RP1=0, select bank0
  1683  00DA  00B8               	movwf	_estado
  1684  00DB  3000               	movlw	0
  1685  00DC  00B9               	movwf	_estado+1
  1686                           
  1687                           ;main_Postlab.c: 162:         }
  1688  00DD  2903               	goto	i1l1232
  1689  00DE                     i1l1218:
  1690                           
  1691                           ;main_Postlab.c: 164:             for(imp = 0; imp<1;imp++){
  1692  00DE  01B4               	clrf	_imp
  1693  00DF  01B5               	clrf	_imp+1
  1694  00E0                     i1l1220:
  1695  00E0  0835               	movf	_imp+1,w
  1696  00E1  3A80               	xorlw	128
  1697  00E2  00FF               	movwf	btemp+1
  1698  00E3  3080               	movlw	128
  1699  00E4  027F               	subwf	btemp+1,w
  1700  00E5  1D03               	skipz
  1701  00E6  28E9               	goto	u86_25
  1702  00E7  3001               	movlw	1
  1703  00E8  0234               	subwf	_imp,w
  1704  00E9                     u86_25:
  1705  00E9  1C03               	skipc
  1706  00EA  28EC               	goto	u86_21
  1707  00EB  28ED               	goto	u86_20
  1708  00EC                     u86_21:
  1709  00EC  28EE               	goto	i1l1224
  1710  00ED                     u86_20:
  1711  00ED  28F9               	goto	i1l1228
  1712  00EE                     i1l1224:
  1713                           
  1714                           ;main_Postlab.c: 165:                 TXREG = RCREG;
  1715  00EE  1283               	bcf	3,5	;RP0=0, select bank0
  1716  00EF  1303               	bcf	3,6	;RP1=0, select bank0
  1717  00F0  081A               	movf	26,w	;volatile
  1718  00F1  0099               	movwf	25	;volatile
  1719                           
  1720                           ;main_Postlab.c: 166:             }
  1721  00F2  3001               	movlw	1
  1722  00F3  07B4               	addwf	_imp,f
  1723  00F4  1803               	skipnc
  1724  00F5  0AB5               	incf	_imp+1,f
  1725  00F6  3000               	movlw	0
  1726  00F7  07B5               	addwf	_imp+1,f
  1727  00F8  28E0               	goto	i1l1220
  1728  00F9                     i1l1228:
  1729                           
  1730                           ;main_Postlab.c: 167:             impresion ("\n\r¡Error, ingrese 1 o 2!\n\r\n\r");
  1731  00F9  305F               	movlw	(low ((STR_7-__stringbase)| (0+32768)))& (0+255)
  1732  00FA  00F0               	movwf	i1impresion@txt
  1733  00FB  3080               	movlw	128
  1734  00FC  00F1               	movwf	i1impresion@txt+1
  1735  00FD  120A  118A  2594  120A  118A  	fcall	i1_impresion
  1736  0102  28C3               	goto	i1l1210
  1737  0103                     i1l1232:
  1738                           
  1739                           ;main_Postlab.c: 171:     if (estado == 3){
  1740  0103  3003               	movlw	3
  1741  0104  0638               	xorwf	_estado,w
  1742  0105  0439               	iorwf	_estado+1,w
  1743  0106  1D03               	btfss	3,2
  1744  0107  2909               	goto	u87_21
  1745  0108  290A               	goto	u87_20
  1746  0109                     u87_21:
  1747  0109  2965               	goto	i1l103
  1748  010A                     u87_20:
  1749  010A  2943               	goto	i1l1254
  1750  010B                     i1l1236:
  1751                           
  1752                           ;main_Postlab.c: 173:             if (dato != RCREG){
  1753  010B  081A               	movf	26,w	;volatile
  1754  010C  00A9               	movwf	??_set_estado
  1755  010D  01AA               	clrf	??_set_estado+1
  1756  010E  0837               	movf	_dato+1,w
  1757  010F  062A               	xorwf	??_set_estado+1,w
  1758  0110  1D03               	skipz
  1759  0111  2914               	goto	u88_25
  1760  0112  0836               	movf	_dato,w
  1761  0113  0629               	xorwf	??_set_estado,w
  1762  0114                     u88_25:
  1763  0114  1903               	skipnz
  1764  0115  2917               	goto	u88_21
  1765  0116  2918               	goto	u88_20
  1766  0117                     u88_21:
  1767  0117  2943               	goto	i1l1254
  1768  0118                     u88_20:
  1769  0118                     i1l1238:
  1770                           
  1771                           ;main_Postlab.c: 174:                 dato = RCREG;
  1772  0118  081A               	movf	26,w	;volatile
  1773  0119  00A9               	movwf	??_set_estado
  1774  011A  01AA               	clrf	??_set_estado+1
  1775  011B  0829               	movf	??_set_estado,w
  1776  011C  00B6               	movwf	_dato
  1777  011D  082A               	movf	??_set_estado+1,w
  1778  011E  00B7               	movwf	_dato+1
  1779  011F                     i1l1240:
  1780                           
  1781                           ;main_Postlab.c: 175:                 for(imp = 0; imp<1;imp++){
  1782  011F  01B4               	clrf	_imp
  1783  0120  01B5               	clrf	_imp+1
  1784  0121                     i1l1242:
  1785  0121  0835               	movf	_imp+1,w
  1786  0122  3A80               	xorlw	128
  1787  0123  00FF               	movwf	btemp+1
  1788  0124  3080               	movlw	128
  1789  0125  027F               	subwf	btemp+1,w
  1790  0126  1D03               	skipz
  1791  0127  292A               	goto	u89_25
  1792  0128  3001               	movlw	1
  1793  0129  0234               	subwf	_imp,w
  1794  012A                     u89_25:
  1795  012A  1C03               	skipc
  1796  012B  292D               	goto	u89_21
  1797  012C  292E               	goto	u89_20
  1798  012D                     u89_21:
  1799  012D  292F               	goto	i1l1246
  1800  012E                     u89_20:
  1801  012E  2943               	goto	i1l1254
  1802  012F                     i1l1246:
  1803                           
  1804                           ;main_Postlab.c: 176:                     impresion("\b");
  1805  012F  30BB               	movlw	(low ((STR_8-__stringbase)| (0+32768)))& (0+255)
  1806  0130  00F0               	movwf	i1impresion@txt
  1807  0131  3080               	movlw	128
  1808  0132  00F1               	movwf	i1impresion@txt+1
  1809  0133  120A  118A  2594  120A  118A  	fcall	i1_impresion
  1810  0138                     i1l1248:
  1811                           
  1812                           ;main_Postlab.c: 177:                     TXREG = dato;
  1813  0138  1283               	bcf	3,5	;RP0=0, select bank0
  1814  0139  1303               	bcf	3,6	;RP1=0, select bank0
  1815  013A  0836               	movf	_dato,w
  1816  013B  0099               	movwf	25	;volatile
  1817  013C                     i1l1250:
  1818                           
  1819                           ;main_Postlab.c: 178:                 }
  1820  013C  3001               	movlw	1
  1821  013D  07B4               	addwf	_imp,f
  1822  013E  1803               	skipnc
  1823  013F  0AB5               	incf	_imp+1,f
  1824  0140  3000               	movlw	0
  1825  0141  07B5               	addwf	_imp+1,f
  1826  0142  2921               	goto	i1l1242
  1827  0143                     i1l1254:
  1828                           
  1829                           ;main_Postlab.c: 172:         while(RCREG != 32){
  1830  0143  3020               	movlw	32
  1831  0144  1283               	bcf	3,5	;RP0=0, select bank0
  1832  0145  1303               	bcf	3,6	;RP1=0, select bank0
  1833  0146  061A               	xorwf	26,w	;volatile
  1834  0147  1D03               	btfss	3,2
  1835  0148  294A               	goto	u90_21
  1836  0149  294B               	goto	u90_20
  1837  014A                     u90_21:
  1838  014A  290B               	goto	i1l1236
  1839  014B                     u90_20:
  1840  014B                     i1l1256:
  1841                           
  1842                           ;main_Postlab.c: 181:         impresion("\n\r\n\rEl ASCII recibido fue: ");
  1843  014B  307C               	movlw	(low ((STR_9-__stringbase)| (0+32768)))& (0+255)
  1844  014C  00F0               	movwf	i1impresion@txt
  1845  014D  3080               	movlw	128
  1846  014E  00F1               	movwf	i1impresion@txt+1
  1847  014F  120A  118A  2594  120A  118A  	fcall	i1_impresion
  1848  0154                     i1l1258:
  1849                           
  1850                           ;main_Postlab.c: 182:         TXREG = dato;
  1851  0154  1283               	bcf	3,5	;RP0=0, select bank0
  1852  0155  1303               	bcf	3,6	;RP1=0, select bank0
  1853  0156  0836               	movf	_dato,w
  1854  0157  0099               	movwf	25	;volatile
  1855  0158                     i1l1260:
  1856                           
  1857                           ;main_Postlab.c: 183:         impresion(".\n\r");
  1858  0158  30AF               	movlw	(low ((STR_10-__stringbase)| (0+32768)))& (0+255)
  1859  0159  00F0               	movwf	i1impresion@txt
  1860  015A  3080               	movlw	128
  1861  015B  00F1               	movwf	i1impresion@txt+1
  1862  015C  120A  118A  2594  120A  118A  	fcall	i1_impresion
  1863  0161                     i1l1262:
  1864                           
  1865                           ;main_Postlab.c: 184:         estado = 0;
  1866  0161  1283               	bcf	3,5	;RP0=0, select bank0
  1867  0162  1303               	bcf	3,6	;RP1=0, select bank0
  1868  0163  01B8               	clrf	_estado
  1869  0164  01B9               	clrf	_estado+1
  1870  0165                     i1l103:
  1871  0165  0008               	return
  1872  0166                     __end_of_set_estado:
  1873                           
  1874                           	psect	text5
  1875  0594                     __ptext5:	
  1876 ;; *************** function i1_impresion *****************
  1877 ;; Defined at:
  1878 ;;		line 189 in file "main_Postlab.c"
  1879 ;; Parameters:    Size  Location     Type
  1880 ;;  txt             2    0[COMMON] PTR unsigned char 
  1881 ;;		 -> STR_10(4), STR_9(28), STR_8(2), STR_7(29), 
  1882 ;;		 -> STR_6(4), STR_5(4), STR_4(19), val_imp(1), 
  1883 ;;		 -> STR_3(41), STR_2(4), STR_1(53), pregunta_2(79), 
  1884 ;;		 -> pregunta_1(95), 
  1885 ;; Auto vars:     Size  Location     Type
  1886 ;;  i               1    3[COMMON] unsigned char 
  1887 ;; Return value:  Size  Location     Type
  1888 ;;                  1    wreg      void 
  1889 ;; Registers used:
  1890 ;;		wreg, fsr0l, fsr0h, status,2, status,0, btemp+1, pclath
  1891 ;; Tracked objects:
  1892 ;;		On entry : 0/0
  1893 ;;		On exit  : 0/0
  1894 ;;		Unchanged: 0/0
  1895 ;; Data sizes:     COMMON   BANK0   BANK1   BANK3   BANK2
  1896 ;;      Params:         2       0       0       0       0
  1897 ;;      Locals:         1       0       0       0       0
  1898 ;;      Temps:          1       0       0       0       0
  1899 ;;      Totals:         4       0       0       0       0
  1900 ;;Total ram usage:        4 bytes
  1901 ;; Hardware stack levels used: 2
  1902 ;; This function calls:
  1903 ;;		Nothing
  1904 ;; This function is called by:
  1905 ;;		_set_estado
  1906 ;; This function uses a non-reentrant model
  1907 ;;
  1908                           
  1909  0594                     i1_impresion:	
  1910                           ;psect for function i1_impresion
  1911                           
  1912  0594                     i1l1188:	
  1913                           ;incstack = 0
  1914                           ; Regs used in i1_impresion: [wreg-fsr0h+status,2+status,0+btemp+1+pclath]
  1915                           
  1916                           
  1917                           ;main_Postlab.c: 190:     uint8_t i = 0;
  1918  0594  01F3               	clrf	i1impresion@i
  1919                           
  1920                           ;main_Postlab.c: 191:     while(txt[i] != '\0'){
  1921  0595  2DAB               	goto	i1l1194
  1922  0596                     i1l107:
  1923                           
  1924                           ;main_Postlab.c: 192:         if(PIR1bits.TXIF){
  1925  0596  1E0C               	btfss	12,4	;volatile
  1926  0597  2D99               	goto	u81_21
  1927  0598  2D9A               	goto	u81_20
  1928  0599                     u81_21:
  1929  0599  2DAB               	goto	i1l1194
  1930  059A                     u81_20:
  1931  059A                     i1l1190:
  1932                           
  1933                           ;main_Postlab.c: 193:             TXREG = txt[i];
  1934  059A  0873               	movf	i1impresion@i,w
  1935  059B  0770               	addwf	i1impresion@txt,w
  1936  059C  0084               	movwf	4
  1937  059D  0871               	movf	i1impresion@txt+1,w
  1938  059E  1803               	skipnc
  1939  059F  0A71               	incf	i1impresion@txt+1,w
  1940  05A0  00FF               	movwf	btemp+1
  1941  05A1  120A  118A  2200  120A  118A  	fcall	stringtab
  1942  05A6  0099               	movwf	25	;volatile
  1943  05A7                     i1l1192:
  1944                           
  1945                           ;main_Postlab.c: 194:             i++;
  1946  05A7  3001               	movlw	1
  1947  05A8  00F2               	movwf	??i1_impresion
  1948  05A9  0872               	movf	??i1_impresion,w
  1949  05AA  07F3               	addwf	i1impresion@i,f
  1950  05AB                     i1l1194:
  1951                           
  1952                           ;main_Postlab.c: 191:     while(txt[i] != '\0'){
  1953  05AB  0873               	movf	i1impresion@i,w
  1954  05AC  0770               	addwf	i1impresion@txt,w
  1955  05AD  0084               	movwf	4
  1956  05AE  0871               	movf	i1impresion@txt+1,w
  1957  05AF  1803               	skipnc
  1958  05B0  0A71               	incf	i1impresion@txt+1,w
  1959  05B1  1283               	bcf	3,5	;RP0=0, select bank0
  1960  05B2  1303               	bcf	3,6	;RP1=0, select bank0
  1961  05B3  00FF               	movwf	btemp+1
  1962  05B4  120A  118A  2200  120A  118A  	fcall	stringtab
  1963  05B9  3A00               	xorlw	0
  1964  05BA  1D03               	skipz
  1965  05BB  2DBD               	goto	u82_21
  1966  05BC  2DBE               	goto	u82_20
  1967  05BD                     u82_21:
  1968  05BD  2D96               	goto	i1l107
  1969  05BE                     u82_20:
  1970  05BE                     i1l110:
  1971  05BE  0008               	return
  1972  05BF                     __end_ofi1_impresion:
  1973                           
  1974                           	psect	text6
  1975  05E7                     __ptext6:	
  1976 ;; *************** function _itoa *****************
  1977 ;; Defined at:
  1978 ;;		line 4 in file "C:\Program Files\Microchip\xc8\v2.35\pic\sources\c90\common\itoa.c"
  1979 ;; Parameters:    Size  Location     Type
  1980 ;;  buf             1    wreg     PTR unsigned char 
  1981 ;;		 -> val_imp(1), 
  1982 ;;  val             2    4[BANK0 ] int 
  1983 ;;  base            2    6[BANK0 ] int 
  1984 ;; Auto vars:     Size  Location     Type
  1985 ;;  buf             1    8[BANK0 ] PTR unsigned char 
  1986 ;;		 -> val_imp(1), 
  1987 ;;  cp              1    0        PTR unsigned char 
  1988 ;;		 -> val_imp(1), 
  1989 ;; Return value:  Size  Location     Type
  1990 ;;                  1    wreg      PTR unsigned char 
  1991 ;; Registers used:
  1992 ;;		wreg, fsr0l, fsr0h, status,2, status,0, pclath, cstack
  1993 ;; Tracked objects:
  1994 ;;		On entry : 0/0
  1995 ;;		On exit  : 0/0
  1996 ;;		Unchanged: 0/0
  1997 ;; Data sizes:     COMMON   BANK0   BANK1   BANK3   BANK2
  1998 ;;      Params:         0       4       0       0       0
  1999 ;;      Locals:         0       1       0       0       0
  2000 ;;      Temps:          1       0       0       0       0
  2001 ;;      Totals:         1       5       0       0       0
  2002 ;;Total ram usage:        6 bytes
  2003 ;; Hardware stack levels used: 1
  2004 ;; Hardware stack levels required when called: 2
  2005 ;; This function calls:
  2006 ;;		_utoa
  2007 ;; This function is called by:
  2008 ;;		_set_estado
  2009 ;; This function uses a non-reentrant model
  2010 ;;
  2011                           
  2012  05E7                     _itoa:	
  2013                           ;psect for function _itoa
  2014                           
  2015                           
  2016                           ;incstack = 0
  2017                           ; Regs used in _itoa: [wreg-fsr0h+status,2+status,0+pclath+cstack]
  2018                           ;itoa@buf stored from wreg
  2019  05E7  1283               	bcf	3,5	;RP0=0, select bank0
  2020  05E8  1303               	bcf	3,6	;RP1=0, select bank0
  2021  05E9  00A8               	movwf	itoa@buf
  2022  05EA                     i1l1116:
  2023  05EA                     i1l1118:
  2024  05EA  1FA5               	btfss	itoa@val+1,7
  2025  05EB  2DED               	goto	u66_21
  2026  05EC  2DEE               	goto	u66_20
  2027  05ED                     u66_21:
  2028  05ED  2DFE               	goto	i1l1126
  2029  05EE                     u66_20:
  2030  05EE                     i1l1120:
  2031  05EE  302D               	movlw	45
  2032  05EF  00FD               	movwf	??_itoa
  2033  05F0  0828               	movf	itoa@buf,w
  2034  05F1  0084               	movwf	4
  2035  05F2  087D               	movf	??_itoa,w
  2036  05F3  1383               	bcf	3,7	;select IRP bank0
  2037  05F4  0080               	movwf	0
  2038  05F5                     i1l1122:
  2039  05F5  3001               	movlw	1
  2040  05F6  00FD               	movwf	??_itoa
  2041  05F7  087D               	movf	??_itoa,w
  2042  05F8  07A8               	addwf	itoa@buf,f
  2043  05F9                     i1l1124:
  2044  05F9  09A4               	comf	itoa@val,f
  2045  05FA  09A5               	comf	itoa@val+1,f
  2046  05FB  0AA4               	incf	itoa@val,f
  2047  05FC  1903               	skipnz
  2048  05FD  0AA5               	incf	itoa@val+1,f
  2049  05FE                     i1l1126:
  2050  05FE  0825               	movf	itoa@val+1,w
  2051  05FF  00F9               	movwf	utoa@val+1
  2052  0600  0824               	movf	itoa@val,w
  2053  0601  00F8               	movwf	utoa@val
  2054  0602  0827               	movf	itoa@base+1,w
  2055  0603  00FB               	movwf	utoa@base+1
  2056  0604  0826               	movf	itoa@base,w
  2057  0605  00FA               	movwf	utoa@base
  2058  0606  0828               	movf	itoa@buf,w
  2059  0607  120A  118A  22CC  120A  118A  	fcall	_utoa
  2060  060C                     i1l650:
  2061  060C  0008               	return
  2062  060D                     __end_of_itoa:
  2063                           
  2064                           	psect	text7
  2065  02CC                     __ptext7:	
  2066 ;; *************** function _utoa *****************
  2067 ;; Defined at:
  2068 ;;		line 17 in file "C:\Program Files\Microchip\xc8\v2.35\pic\sources\c90\common\itoa.c"
  2069 ;; Parameters:    Size  Location     Type
  2070 ;;  buf             1    wreg     PTR unsigned char 
  2071 ;;		 -> val_imp(1), 
  2072 ;;  val             2    8[COMMON] unsigned int 
  2073 ;;  base            2   10[COMMON] int 
  2074 ;; Auto vars:     Size  Location     Type
  2075 ;;  buf             1    3[BANK0 ] PTR unsigned char 
  2076 ;;		 -> val_imp(1), 
  2077 ;;  v               2    0[BANK0 ] unsigned int 
  2078 ;;  c               1    2[BANK0 ] unsigned char 
  2079 ;; Return value:  Size  Location     Type
  2080 ;;                  1    wreg      PTR unsigned char 
  2081 ;; Registers used:
  2082 ;;		wreg, fsr0l, fsr0h, status,2, status,0, pclath, cstack
  2083 ;; Tracked objects:
  2084 ;;		On entry : 0/0
  2085 ;;		On exit  : 0/0
  2086 ;;		Unchanged: 0/0
  2087 ;; Data sizes:     COMMON   BANK0   BANK1   BANK3   BANK2
  2088 ;;      Params:         4       0       0       0       0
  2089 ;;      Locals:         0       4       0       0       0
  2090 ;;      Temps:          1       0       0       0       0
  2091 ;;      Totals:         5       4       0       0       0
  2092 ;;Total ram usage:        9 bytes
  2093 ;; Hardware stack levels used: 1
  2094 ;; Hardware stack levels required when called: 1
  2095 ;; This function calls:
  2096 ;;		___lwdiv
  2097 ;;		___lwmod
  2098 ;; This function is called by:
  2099 ;;		_itoa
  2100 ;; This function uses a non-reentrant model
  2101 ;;
  2102                           
  2103  02CC                     _utoa:	
  2104                           ;psect for function _utoa
  2105                           
  2106                           
  2107                           ;incstack = 0
  2108                           ; Regs used in _utoa: [wreg-fsr0h+status,2+status,0+pclath+cstack]
  2109                           ;utoa@buf stored from wreg
  2110  02CC  1283               	bcf	3,5	;RP0=0, select bank0
  2111  02CD  1303               	bcf	3,6	;RP1=0, select bank0
  2112  02CE  00A3               	movwf	utoa@buf
  2113  02CF                     i1l1086:
  2114  02CF  0879               	movf	utoa@val+1,w
  2115  02D0  00A1               	movwf	utoa@v+1
  2116  02D1  0878               	movf	utoa@val,w
  2117  02D2  00A0               	movwf	utoa@v
  2118  02D3                     i1l1088:
  2119  02D3  087B               	movf	utoa@base+1,w
  2120  02D4  00F1               	movwf	___lwdiv@divisor+1
  2121  02D5  087A               	movf	utoa@base,w
  2122  02D6  00F0               	movwf	___lwdiv@divisor
  2123  02D7  0821               	movf	utoa@v+1,w
  2124  02D8  00F3               	movwf	___lwdiv@dividend+1
  2125  02D9  0820               	movf	utoa@v,w
  2126  02DA  00F2               	movwf	___lwdiv@dividend
  2127  02DB  120A  118A  24EB  120A  118A  	fcall	___lwdiv
  2128  02E0  0871               	movf	?___lwdiv+1,w
  2129  02E1  1283               	bcf	3,5	;RP0=0, select bank0
  2130  02E2  1303               	bcf	3,6	;RP1=0, select bank0
  2131  02E3  00A1               	movwf	utoa@v+1
  2132  02E4  0870               	movf	?___lwdiv,w
  2133  02E5  00A0               	movwf	utoa@v
  2134  02E6                     i1l1090:
  2135  02E6  3001               	movlw	1
  2136  02E7  00FC               	movwf	??_utoa
  2137  02E8  087C               	movf	??_utoa,w
  2138  02E9  07A3               	addwf	utoa@buf,f
  2139  02EA                     i1l1092:
  2140  02EA  0820               	movf	utoa@v,w
  2141  02EB  0421               	iorwf	utoa@v+1,w
  2142  02EC  1D03               	btfss	3,2
  2143  02ED  2AEF               	goto	u63_21
  2144  02EE  2AF0               	goto	u63_20
  2145  02EF                     u63_21:
  2146  02EF  2AD3               	goto	i1l1088
  2147  02F0                     u63_20:
  2148  02F0                     i1l1094:
  2149  02F0  0823               	movf	utoa@buf,w
  2150  02F1  0084               	movwf	4
  2151  02F2  1383               	bcf	3,7	;select IRP bank0
  2152  02F3  0180               	clrf	0
  2153  02F4                     i1l1096:
  2154  02F4  3001               	movlw	1
  2155  02F5  02A3               	subwf	utoa@buf,f
  2156  02F6                     i1l1098:
  2157  02F6  087B               	movf	utoa@base+1,w
  2158  02F7  00F1               	movwf	___lwmod@divisor+1
  2159  02F8  087A               	movf	utoa@base,w
  2160  02F9  00F0               	movwf	___lwmod@divisor
  2161  02FA  0879               	movf	utoa@val+1,w
  2162  02FB  00F3               	movwf	___lwmod@dividend+1
  2163  02FC  0878               	movf	utoa@val,w
  2164  02FD  00F2               	movwf	___lwmod@dividend
  2165  02FE  120A  118A  252F  120A  118A  	fcall	___lwmod
  2166  0303  0870               	movf	?___lwmod,w
  2167  0304  00FC               	movwf	??_utoa
  2168  0305  087C               	movf	??_utoa,w
  2169  0306  1283               	bcf	3,5	;RP0=0, select bank0
  2170  0307  1303               	bcf	3,6	;RP1=0, select bank0
  2171  0308  00A2               	movwf	utoa@c
  2172  0309                     i1l1100:
  2173  0309  087B               	movf	utoa@base+1,w
  2174  030A  00F1               	movwf	___lwdiv@divisor+1
  2175  030B  087A               	movf	utoa@base,w
  2176  030C  00F0               	movwf	___lwdiv@divisor
  2177  030D  0879               	movf	utoa@val+1,w
  2178  030E  00F3               	movwf	___lwdiv@dividend+1
  2179  030F  0878               	movf	utoa@val,w
  2180  0310  00F2               	movwf	___lwdiv@dividend
  2181  0311  120A  118A  24EB  120A  118A  	fcall	___lwdiv
  2182  0316  0871               	movf	?___lwdiv+1,w
  2183  0317  00F9               	movwf	utoa@val+1
  2184  0318  0870               	movf	?___lwdiv,w
  2185  0319  00F8               	movwf	utoa@val
  2186  031A                     i1l1102:
  2187  031A  300A               	movlw	10
  2188  031B  1283               	bcf	3,5	;RP0=0, select bank0
  2189  031C  1303               	bcf	3,6	;RP1=0, select bank0
  2190  031D  0222               	subwf	utoa@c,w
  2191  031E  1C03               	skipc
  2192  031F  2B21               	goto	u64_21
  2193  0320  2B22               	goto	u64_20
  2194  0321                     u64_21:
  2195  0321  2B26               	goto	i1l656
  2196  0322                     u64_20:
  2197  0322                     i1l1104:
  2198  0322  3007               	movlw	7
  2199  0323  00FC               	movwf	??_utoa
  2200  0324  087C               	movf	??_utoa,w
  2201  0325  07A2               	addwf	utoa@c,f
  2202  0326                     i1l656:
  2203  0326  3030               	movlw	48
  2204  0327  00FC               	movwf	??_utoa
  2205  0328  087C               	movf	??_utoa,w
  2206  0329  07A2               	addwf	utoa@c,f
  2207  032A                     i1l1106:
  2208  032A  0822               	movf	utoa@c,w
  2209  032B  00FC               	movwf	??_utoa
  2210  032C  0823               	movf	utoa@buf,w
  2211  032D  0084               	movwf	4
  2212  032E  087C               	movf	??_utoa,w
  2213  032F  1383               	bcf	3,7	;select IRP bank0
  2214  0330  0080               	movwf	0
  2215  0331                     i1l1108:
  2216  0331  3001               	movlw	1
  2217  0332  02A3               	subwf	utoa@buf,f
  2218  0333                     i1l1110:
  2219  0333  0878               	movf	utoa@val,w
  2220  0334  0479               	iorwf	utoa@val+1,w
  2221  0335  1D03               	btfss	3,2
  2222  0336  2B38               	goto	u65_21
  2223  0337  2B39               	goto	u65_20
  2224  0338                     u65_21:
  2225  0338  2AF6               	goto	i1l1098
  2226  0339                     u65_20:
  2227  0339                     i1l1112:
  2228                           
  2229                           ;	Return value of _utoa is never used
  2230  0339  3001               	movlw	1
  2231  033A  00FC               	movwf	??_utoa
  2232  033B  087C               	movf	??_utoa,w
  2233  033C  07A3               	addwf	utoa@buf,f
  2234  033D                     i1l658:
  2235  033D  0008               	return
  2236  033E                     __end_of_utoa:
  2237                           
  2238                           	psect	text8
  2239  052F                     __ptext8:	
  2240 ;; *************** function ___lwmod *****************
  2241 ;; Defined at:
  2242 ;;		line 5 in file "C:\Program Files\Microchip\xc8\v2.35\pic\sources\c90\common\lwmod.c"
  2243 ;; Parameters:    Size  Location     Type
  2244 ;;  divisor         2    0[COMMON] unsigned int 
  2245 ;;  dividend        2    2[COMMON] unsigned int 
  2246 ;; Auto vars:     Size  Location     Type
  2247 ;;  counter         1    5[COMMON] unsigned char 
  2248 ;; Return value:  Size  Location     Type
  2249 ;;                  2    0[COMMON] unsigned int 
  2250 ;; Registers used:
  2251 ;;		wreg, status,2, status,0
  2252 ;; Tracked objects:
  2253 ;;		On entry : 0/0
  2254 ;;		On exit  : 0/0
  2255 ;;		Unchanged: 0/0
  2256 ;; Data sizes:     COMMON   BANK0   BANK1   BANK3   BANK2
  2257 ;;      Params:         4       0       0       0       0
  2258 ;;      Locals:         1       0       0       0       0
  2259 ;;      Temps:          1       0       0       0       0
  2260 ;;      Totals:         6       0       0       0       0
  2261 ;;Total ram usage:        6 bytes
  2262 ;; Hardware stack levels used: 1
  2263 ;; This function calls:
  2264 ;;		Nothing
  2265 ;; This function is called by:
  2266 ;;		_utoa
  2267 ;; This function uses a non-reentrant model
  2268 ;;
  2269                           
  2270  052F                     ___lwmod:	
  2271                           ;psect for function ___lwmod
  2272                           
  2273  052F                     i1l1064:	
  2274                           ;incstack = 0
  2275                           ; Regs used in ___lwmod: [wreg+status,2+status,0]
  2276                           
  2277  052F  0870               	movf	___lwmod@divisor,w
  2278  0530  0471               	iorwf	___lwmod@divisor+1,w
  2279  0531  1903               	btfsc	3,2
  2280  0532  2D34               	goto	u57_21
  2281  0533  2D35               	goto	u57_20
  2282  0534                     u57_21:
  2283  0534  2D64               	goto	i1l1082
  2284  0535                     u57_20:
  2285  0535                     i1l1066:
  2286  0535  01F5               	clrf	___lwmod@counter
  2287  0536  0AF5               	incf	___lwmod@counter,f
  2288  0537  2D43               	goto	i1l1072
  2289  0538                     i1l1068:
  2290  0538  3001               	movlw	1
  2291  0539                     u58_25:
  2292  0539  1003               	clrc
  2293  053A  0DF0               	rlf	___lwmod@divisor,f
  2294  053B  0DF1               	rlf	___lwmod@divisor+1,f
  2295  053C  3EFF               	addlw	-1
  2296  053D  1D03               	skipz
  2297  053E  2D39               	goto	u58_25
  2298  053F                     i1l1070:
  2299  053F  3001               	movlw	1
  2300  0540  00F4               	movwf	??___lwmod
  2301  0541  0874               	movf	??___lwmod,w
  2302  0542  07F5               	addwf	___lwmod@counter,f
  2303  0543                     i1l1072:
  2304  0543  1FF1               	btfss	___lwmod@divisor+1,7
  2305  0544  2D46               	goto	u59_21
  2306  0545  2D47               	goto	u59_20
  2307  0546                     u59_21:
  2308  0546  2D38               	goto	i1l1068
  2309  0547                     u59_20:
  2310  0547                     i1l1074:
  2311  0547  0871               	movf	___lwmod@divisor+1,w
  2312  0548  0273               	subwf	___lwmod@dividend+1,w
  2313  0549  1D03               	skipz
  2314  054A  2D4D               	goto	u60_25
  2315  054B  0870               	movf	___lwmod@divisor,w
  2316  054C  0272               	subwf	___lwmod@dividend,w
  2317  054D                     u60_25:
  2318  054D  1C03               	skipc
  2319  054E  2D50               	goto	u60_21
  2320  054F  2D51               	goto	u60_20
  2321  0550                     u60_21:
  2322  0550  2D57               	goto	i1l1078
  2323  0551                     u60_20:
  2324  0551                     i1l1076:
  2325  0551  0870               	movf	___lwmod@divisor,w
  2326  0552  02F2               	subwf	___lwmod@dividend,f
  2327  0553  0871               	movf	___lwmod@divisor+1,w
  2328  0554  1C03               	skipc
  2329  0555  03F3               	decf	___lwmod@dividend+1,f
  2330  0556  02F3               	subwf	___lwmod@dividend+1,f
  2331  0557                     i1l1078:
  2332  0557  3001               	movlw	1
  2333  0558                     u61_25:
  2334  0558  1003               	clrc
  2335  0559  0CF1               	rrf	___lwmod@divisor+1,f
  2336  055A  0CF0               	rrf	___lwmod@divisor,f
  2337  055B  3EFF               	addlw	-1
  2338  055C  1D03               	skipz
  2339  055D  2D58               	goto	u61_25
  2340  055E                     i1l1080:
  2341  055E  3001               	movlw	1
  2342  055F  02F5               	subwf	___lwmod@counter,f
  2343  0560  1D03               	btfss	3,2
  2344  0561  2D63               	goto	u62_21
  2345  0562  2D64               	goto	u62_20
  2346  0563                     u62_21:
  2347  0563  2D47               	goto	i1l1074
  2348  0564                     u62_20:
  2349  0564                     i1l1082:
  2350  0564  0873               	movf	___lwmod@dividend+1,w
  2351  0565  00F1               	movwf	?___lwmod+1
  2352  0566  0872               	movf	___lwmod@dividend,w
  2353  0567  00F0               	movwf	?___lwmod
  2354  0568                     i1l478:
  2355  0568  0008               	return
  2356  0569                     __end_of___lwmod:
  2357                           
  2358                           	psect	text9
  2359  04EB                     __ptext9:	
  2360 ;; *************** function ___lwdiv *****************
  2361 ;; Defined at:
  2362 ;;		line 5 in file "C:\Program Files\Microchip\xc8\v2.35\pic\sources\c90\common\lwdiv.c"
  2363 ;; Parameters:    Size  Location     Type
  2364 ;;  divisor         2    0[COMMON] unsigned int 
  2365 ;;  dividend        2    2[COMMON] unsigned int 
  2366 ;; Auto vars:     Size  Location     Type
  2367 ;;  quotient        2    5[COMMON] unsigned int 
  2368 ;;  counter         1    7[COMMON] unsigned char 
  2369 ;; Return value:  Size  Location     Type
  2370 ;;                  2    0[COMMON] unsigned int 
  2371 ;; Registers used:
  2372 ;;		wreg, status,2, status,0
  2373 ;; Tracked objects:
  2374 ;;		On entry : 0/0
  2375 ;;		On exit  : 0/0
  2376 ;;		Unchanged: 0/0
  2377 ;; Data sizes:     COMMON   BANK0   BANK1   BANK3   BANK2
  2378 ;;      Params:         4       0       0       0       0
  2379 ;;      Locals:         3       0       0       0       0
  2380 ;;      Temps:          1       0       0       0       0
  2381 ;;      Totals:         8       0       0       0       0
  2382 ;;Total ram usage:        8 bytes
  2383 ;; Hardware stack levels used: 1
  2384 ;; This function calls:
  2385 ;;		Nothing
  2386 ;; This function is called by:
  2387 ;;		_utoa
  2388 ;; This function uses a non-reentrant model
  2389 ;;
  2390                           
  2391  04EB                     ___lwdiv:	
  2392                           ;psect for function ___lwdiv
  2393                           
  2394  04EB                     i1l1038:	
  2395                           ;incstack = 0
  2396                           ; Regs used in ___lwdiv: [wreg+status,2+status,0]
  2397                           
  2398  04EB  01F5               	clrf	___lwdiv@quotient
  2399  04EC  01F6               	clrf	___lwdiv@quotient+1
  2400  04ED                     i1l1040:
  2401  04ED  0870               	movf	___lwdiv@divisor,w
  2402  04EE  0471               	iorwf	___lwdiv@divisor+1,w
  2403  04EF  1903               	btfsc	3,2
  2404  04F0  2CF2               	goto	u50_21
  2405  04F1  2CF3               	goto	u50_20
  2406  04F2                     u50_21:
  2407  04F2  2D2A               	goto	i1l1060
  2408  04F3                     u50_20:
  2409  04F3                     i1l1042:
  2410  04F3  01F7               	clrf	___lwdiv@counter
  2411  04F4  0AF7               	incf	___lwdiv@counter,f
  2412  04F5  2D01               	goto	i1l1048
  2413  04F6                     i1l1044:
  2414  04F6  3001               	movlw	1
  2415  04F7                     u51_25:
  2416  04F7  1003               	clrc
  2417  04F8  0DF0               	rlf	___lwdiv@divisor,f
  2418  04F9  0DF1               	rlf	___lwdiv@divisor+1,f
  2419  04FA  3EFF               	addlw	-1
  2420  04FB  1D03               	skipz
  2421  04FC  2CF7               	goto	u51_25
  2422  04FD                     i1l1046:
  2423  04FD  3001               	movlw	1
  2424  04FE  00F4               	movwf	??___lwdiv
  2425  04FF  0874               	movf	??___lwdiv,w
  2426  0500  07F7               	addwf	___lwdiv@counter,f
  2427  0501                     i1l1048:
  2428  0501  1FF1               	btfss	___lwdiv@divisor+1,7
  2429  0502  2D04               	goto	u52_21
  2430  0503  2D05               	goto	u52_20
  2431  0504                     u52_21:
  2432  0504  2CF6               	goto	i1l1044
  2433  0505                     u52_20:
  2434  0505                     i1l1050:
  2435  0505  3001               	movlw	1
  2436  0506                     u53_25:
  2437  0506  1003               	clrc
  2438  0507  0DF5               	rlf	___lwdiv@quotient,f
  2439  0508  0DF6               	rlf	___lwdiv@quotient+1,f
  2440  0509  3EFF               	addlw	-1
  2441  050A  1D03               	skipz
  2442  050B  2D06               	goto	u53_25
  2443  050C  0871               	movf	___lwdiv@divisor+1,w
  2444  050D  0273               	subwf	___lwdiv@dividend+1,w
  2445  050E  1D03               	skipz
  2446  050F  2D12               	goto	u54_25
  2447  0510  0870               	movf	___lwdiv@divisor,w
  2448  0511  0272               	subwf	___lwdiv@dividend,w
  2449  0512                     u54_25:
  2450  0512  1C03               	skipc
  2451  0513  2D15               	goto	u54_21
  2452  0514  2D16               	goto	u54_20
  2453  0515                     u54_21:
  2454  0515  2D1D               	goto	i1l1056
  2455  0516                     u54_20:
  2456  0516                     i1l1052:
  2457  0516  0870               	movf	___lwdiv@divisor,w
  2458  0517  02F2               	subwf	___lwdiv@dividend,f
  2459  0518  0871               	movf	___lwdiv@divisor+1,w
  2460  0519  1C03               	skipc
  2461  051A  03F3               	decf	___lwdiv@dividend+1,f
  2462  051B  02F3               	subwf	___lwdiv@dividend+1,f
  2463  051C                     i1l1054:
  2464  051C  1475               	bsf	___lwdiv@quotient,0
  2465  051D                     i1l1056:
  2466  051D  3001               	movlw	1
  2467  051E                     u55_25:
  2468  051E  1003               	clrc
  2469  051F  0CF1               	rrf	___lwdiv@divisor+1,f
  2470  0520  0CF0               	rrf	___lwdiv@divisor,f
  2471  0521  3EFF               	addlw	-1
  2472  0522  1D03               	skipz
  2473  0523  2D1E               	goto	u55_25
  2474  0524                     i1l1058:
  2475  0524  3001               	movlw	1
  2476  0525  02F7               	subwf	___lwdiv@counter,f
  2477  0526  1D03               	btfss	3,2
  2478  0527  2D29               	goto	u56_21
  2479  0528  2D2A               	goto	u56_20
  2480  0529                     u56_21:
  2481  0529  2D05               	goto	i1l1050
  2482  052A                     u56_20:
  2483  052A                     i1l1060:
  2484  052A  0876               	movf	___lwdiv@quotient+1,w
  2485  052B  00F1               	movwf	?___lwdiv+1
  2486  052C  0875               	movf	___lwdiv@quotient,w
  2487  052D  00F0               	movwf	?___lwdiv
  2488  052E                     i1l468:
  2489  052E  0008               	return
  2490  052F                     __end_of___lwdiv:
  2491                           
  2492                           	psect	text10
  2493  060D                     __ptext10:	
  2494 ;; *************** function ___wmul *****************
  2495 ;; Defined at:
  2496 ;;		line 15 in file "C:\Program Files\Microchip\xc8\v2.35\pic\sources\c90\common\Umul16.c"
  2497 ;; Parameters:    Size  Location     Type
  2498 ;;  multiplier      2    0[COMMON] unsigned int 
  2499 ;;  multiplicand    2    2[COMMON] unsigned int 
  2500 ;; Auto vars:     Size  Location     Type
  2501 ;;  product         2    4[COMMON] unsigned int 
  2502 ;; Return value:  Size  Location     Type
  2503 ;;                  2    0[COMMON] unsigned int 
  2504 ;; Registers used:
  2505 ;;		wreg, status,2, status,0
  2506 ;; Tracked objects:
  2507 ;;		On entry : 0/0
  2508 ;;		On exit  : 0/0
  2509 ;;		Unchanged: 0/0
  2510 ;; Data sizes:     COMMON   BANK0   BANK1   BANK3   BANK2
  2511 ;;      Params:         4       0       0       0       0
  2512 ;;      Locals:         2       0       0       0       0
  2513 ;;      Temps:          0       0       0       0       0
  2514 ;;      Totals:         6       0       0       0       0
  2515 ;;Total ram usage:        6 bytes
  2516 ;; Hardware stack levels used: 1
  2517 ;; This function calls:
  2518 ;;		Nothing
  2519 ;; This function is called by:
  2520 ;;		_set_estado
  2521 ;; This function uses a non-reentrant model
  2522 ;;
  2523                           
  2524  060D                     ___wmul:	
  2525                           ;psect for function ___wmul
  2526                           
  2527  060D                     i1l1130:	
  2528                           ;incstack = 0
  2529                           ; Regs used in ___wmul: [wreg+status,2+status,0]
  2530                           
  2531  060D  01F4               	clrf	___wmul@product
  2532  060E  01F5               	clrf	___wmul@product+1
  2533  060F                     i1l1132:
  2534  060F  1C70               	btfss	___wmul@multiplier,0
  2535  0610  2E12               	goto	u67_21
  2536  0611  2E13               	goto	u67_20
  2537  0612                     u67_21:
  2538  0612  2E19               	goto	i1l196
  2539  0613                     u67_20:
  2540  0613                     i1l1134:
  2541  0613  0872               	movf	___wmul@multiplicand,w
  2542  0614  07F4               	addwf	___wmul@product,f
  2543  0615  1803               	skipnc
  2544  0616  0AF5               	incf	___wmul@product+1,f
  2545  0617  0873               	movf	___wmul@multiplicand+1,w
  2546  0618  07F5               	addwf	___wmul@product+1,f
  2547  0619                     i1l196:
  2548  0619  3001               	movlw	1
  2549  061A                     u68_25:
  2550  061A  1003               	clrc
  2551  061B  0DF2               	rlf	___wmul@multiplicand,f
  2552  061C  0DF3               	rlf	___wmul@multiplicand+1,f
  2553  061D  3EFF               	addlw	-1
  2554  061E  1D03               	skipz
  2555  061F  2E1A               	goto	u68_25
  2556  0620                     i1l1136:
  2557  0620  3001               	movlw	1
  2558  0621                     u69_25:
  2559  0621  1003               	clrc
  2560  0622  0CF1               	rrf	___wmul@multiplier+1,f
  2561  0623  0CF0               	rrf	___wmul@multiplier,f
  2562  0624  3EFF               	addlw	-1
  2563  0625  1D03               	skipz
  2564  0626  2E21               	goto	u69_25
  2565  0627                     i1l1138:
  2566  0627  0870               	movf	___wmul@multiplier,w
  2567  0628  0471               	iorwf	___wmul@multiplier+1,w
  2568  0629  1D03               	btfss	3,2
  2569  062A  2E2C               	goto	u70_21
  2570  062B  2E2D               	goto	u70_20
  2571  062C                     u70_21:
  2572  062C  2E0F               	goto	i1l1132
  2573  062D                     u70_20:
  2574  062D                     i1l1140:
  2575  062D  0875               	movf	___wmul@product+1,w
  2576  062E  00F1               	movwf	?___wmul+1
  2577  062F  0874               	movf	___wmul@product,w
  2578  0630  00F0               	movwf	?___wmul
  2579  0631                     i1l198:
  2580  0631  0008               	return
  2581  0632                     __end_of___wmul:
  2582                           
  2583                           	psect	text11
  2584  033E                     __ptext11:	
  2585 ;; *************** function ___awdiv *****************
  2586 ;; Defined at:
  2587 ;;		line 5 in file "C:\Program Files\Microchip\xc8\v2.35\pic\sources\c90\common\awdiv.c"
  2588 ;; Parameters:    Size  Location     Type
  2589 ;;  divisor         2    6[COMMON] int 
  2590 ;;  dividend        2    8[COMMON] int 
  2591 ;; Auto vars:     Size  Location     Type
  2592 ;;  quotient        2    2[BANK0 ] int 
  2593 ;;  sign            1    1[BANK0 ] unsigned char 
  2594 ;;  counter         1    0[BANK0 ] unsigned char 
  2595 ;; Return value:  Size  Location     Type
  2596 ;;                  2    6[COMMON] int 
  2597 ;; Registers used:
  2598 ;;		wreg, status,2, status,0
  2599 ;; Tracked objects:
  2600 ;;		On entry : 0/0
  2601 ;;		On exit  : 0/0
  2602 ;;		Unchanged: 0/0
  2603 ;; Data sizes:     COMMON   BANK0   BANK1   BANK3   BANK2
  2604 ;;      Params:         4       0       0       0       0
  2605 ;;      Locals:         0       4       0       0       0
  2606 ;;      Temps:          1       0       0       0       0
  2607 ;;      Totals:         5       4       0       0       0
  2608 ;;Total ram usage:        9 bytes
  2609 ;; Hardware stack levels used: 1
  2610 ;; This function calls:
  2611 ;;		Nothing
  2612 ;; This function is called by:
  2613 ;;		_set_estado
  2614 ;; This function uses a non-reentrant model
  2615 ;;
  2616                           
  2617  033E                     ___awdiv:	
  2618                           ;psect for function ___awdiv
  2619                           
  2620  033E                     i1l1144:	
  2621                           ;incstack = 0
  2622                           ; Regs used in ___awdiv: [wreg+status,2+status,0]
  2623                           
  2624  033E  1283               	bcf	3,5	;RP0=0, select bank0
  2625  033F  1303               	bcf	3,6	;RP1=0, select bank0
  2626  0340  01A1               	clrf	___awdiv@sign
  2627  0341                     i1l1146:
  2628  0341  1FF7               	btfss	___awdiv@divisor+1,7
  2629  0342  2B44               	goto	u71_21
  2630  0343  2B45               	goto	u71_20
  2631  0344                     u71_21:
  2632  0344  2B4C               	goto	i1l1152
  2633  0345                     u71_20:
  2634  0345                     i1l1148:
  2635  0345  09F6               	comf	___awdiv@divisor,f
  2636  0346  09F7               	comf	___awdiv@divisor+1,f
  2637  0347  0AF6               	incf	___awdiv@divisor,f
  2638  0348  1903               	skipnz
  2639  0349  0AF7               	incf	___awdiv@divisor+1,f
  2640  034A                     i1l1150:
  2641  034A  01A1               	clrf	___awdiv@sign
  2642  034B  0AA1               	incf	___awdiv@sign,f
  2643  034C                     i1l1152:
  2644  034C  1FF9               	btfss	___awdiv@dividend+1,7
  2645  034D  2B4F               	goto	u72_21
  2646  034E  2B50               	goto	u72_20
  2647  034F                     u72_21:
  2648  034F  2B59               	goto	i1l1158
  2649  0350                     u72_20:
  2650  0350                     i1l1154:
  2651  0350  09F8               	comf	___awdiv@dividend,f
  2652  0351  09F9               	comf	___awdiv@dividend+1,f
  2653  0352  0AF8               	incf	___awdiv@dividend,f
  2654  0353  1903               	skipnz
  2655  0354  0AF9               	incf	___awdiv@dividend+1,f
  2656  0355                     i1l1156:
  2657  0355  3001               	movlw	1
  2658  0356  00FA               	movwf	??___awdiv
  2659  0357  087A               	movf	??___awdiv,w
  2660  0358  06A1               	xorwf	___awdiv@sign,f
  2661  0359                     i1l1158:
  2662  0359  01A2               	clrf	___awdiv@quotient
  2663  035A  01A3               	clrf	___awdiv@quotient+1
  2664  035B                     i1l1160:
  2665  035B  0876               	movf	___awdiv@divisor,w
  2666  035C  0477               	iorwf	___awdiv@divisor+1,w
  2667  035D  1903               	btfsc	3,2
  2668  035E  2B60               	goto	u73_21
  2669  035F  2B61               	goto	u73_20
  2670  0360                     u73_21:
  2671  0360  2B98               	goto	i1l1180
  2672  0361                     u73_20:
  2673  0361                     i1l1162:
  2674  0361  01A0               	clrf	___awdiv@counter
  2675  0362  0AA0               	incf	___awdiv@counter,f
  2676  0363  2B6F               	goto	i1l1168
  2677  0364                     i1l1164:
  2678  0364  3001               	movlw	1
  2679  0365                     u74_25:
  2680  0365  1003               	clrc
  2681  0366  0DF6               	rlf	___awdiv@divisor,f
  2682  0367  0DF7               	rlf	___awdiv@divisor+1,f
  2683  0368  3EFF               	addlw	-1
  2684  0369  1D03               	skipz
  2685  036A  2B65               	goto	u74_25
  2686  036B                     i1l1166:
  2687  036B  3001               	movlw	1
  2688  036C  00FA               	movwf	??___awdiv
  2689  036D  087A               	movf	??___awdiv,w
  2690  036E  07A0               	addwf	___awdiv@counter,f
  2691  036F                     i1l1168:
  2692  036F  1FF7               	btfss	___awdiv@divisor+1,7
  2693  0370  2B72               	goto	u75_21
  2694  0371  2B73               	goto	u75_20
  2695  0372                     u75_21:
  2696  0372  2B64               	goto	i1l1164
  2697  0373                     u75_20:
  2698  0373                     i1l1170:
  2699  0373  3001               	movlw	1
  2700  0374                     u76_25:
  2701  0374  1003               	clrc
  2702  0375  0DA2               	rlf	___awdiv@quotient,f
  2703  0376  0DA3               	rlf	___awdiv@quotient+1,f
  2704  0377  3EFF               	addlw	-1
  2705  0378  1D03               	skipz
  2706  0379  2B74               	goto	u76_25
  2707  037A  0877               	movf	___awdiv@divisor+1,w
  2708  037B  0279               	subwf	___awdiv@dividend+1,w
  2709  037C  1D03               	skipz
  2710  037D  2B80               	goto	u77_25
  2711  037E  0876               	movf	___awdiv@divisor,w
  2712  037F  0278               	subwf	___awdiv@dividend,w
  2713  0380                     u77_25:
  2714  0380  1C03               	skipc
  2715  0381  2B83               	goto	u77_21
  2716  0382  2B84               	goto	u77_20
  2717  0383                     u77_21:
  2718  0383  2B8B               	goto	i1l1176
  2719  0384                     u77_20:
  2720  0384                     i1l1172:
  2721  0384  0876               	movf	___awdiv@divisor,w
  2722  0385  02F8               	subwf	___awdiv@dividend,f
  2723  0386  0877               	movf	___awdiv@divisor+1,w
  2724  0387  1C03               	skipc
  2725  0388  03F9               	decf	___awdiv@dividend+1,f
  2726  0389  02F9               	subwf	___awdiv@dividend+1,f
  2727  038A                     i1l1174:
  2728  038A  1422               	bsf	___awdiv@quotient,0
  2729  038B                     i1l1176:
  2730  038B  3001               	movlw	1
  2731  038C                     u78_25:
  2732  038C  1003               	clrc
  2733  038D  0CF7               	rrf	___awdiv@divisor+1,f
  2734  038E  0CF6               	rrf	___awdiv@divisor,f
  2735  038F  3EFF               	addlw	-1
  2736  0390  1D03               	skipz
  2737  0391  2B8C               	goto	u78_25
  2738  0392                     i1l1178:
  2739  0392  3001               	movlw	1
  2740  0393  02A0               	subwf	___awdiv@counter,f
  2741  0394  1D03               	btfss	3,2
  2742  0395  2B97               	goto	u79_21
  2743  0396  2B98               	goto	u79_20
  2744  0397                     u79_21:
  2745  0397  2B73               	goto	i1l1170
  2746  0398                     u79_20:
  2747  0398                     i1l1180:
  2748  0398  0821               	movf	___awdiv@sign,w
  2749  0399  1903               	btfsc	3,2
  2750  039A  2B9C               	goto	u80_21
  2751  039B  2B9D               	goto	u80_20
  2752  039C                     u80_21:
  2753  039C  2BA2               	goto	i1l1184
  2754  039D                     u80_20:
  2755  039D                     i1l1182:
  2756  039D  09A2               	comf	___awdiv@quotient,f
  2757  039E  09A3               	comf	___awdiv@quotient+1,f
  2758  039F  0AA2               	incf	___awdiv@quotient,f
  2759  03A0  1903               	skipnz
  2760  03A1  0AA3               	incf	___awdiv@quotient+1,f
  2761  03A2                     i1l1184:
  2762  03A2  0823               	movf	___awdiv@quotient+1,w
  2763  03A3  00F7               	movwf	?___awdiv+1
  2764  03A4  0822               	movf	___awdiv@quotient,w
  2765  03A5  00F6               	movwf	?___awdiv
  2766  03A6                     i1l349:
  2767  03A6  0008               	return
  2768  03A7                     __end_of___awdiv:
  2769  007E                     btemp	set	126	;btemp
  2770  007E                     wtemp0	set	126
  2771                           
  2772                           	psect	idloc
  2773                           
  2774                           ;Config register IDLOC0 @ 0x2000
  2775                           ;	unspecified, using default values
  2776  2000                     	org	8192
  2777  2000  3FFF               	dw	16383
  2778                           
  2779                           ;Config register IDLOC1 @ 0x2001
  2780                           ;	unspecified, using default values
  2781  2001                     	org	8193
  2782  2001  3FFF               	dw	16383
  2783                           
  2784                           ;Config register IDLOC2 @ 0x2002
  2785                           ;	unspecified, using default values
  2786  2002                     	org	8194
  2787  2002  3FFF               	dw	16383
  2788                           
  2789                           ;Config register IDLOC3 @ 0x2003
  2790                           ;	unspecified, using default values
  2791  2003                     	org	8195
  2792  2003  3FFF               	dw	16383
  2793                           
  2794                           	psect	config
  2795                           
  2796                           ;Config register CONFIG1 @ 0x2007
  2797                           ;	Oscillator Selection bits
  2798                           ;	FOSC = INTRC_NOCLKOUT, INTOSCIO oscillator: I/O function on RA6/OSC2/CLKOUT pin, I/O f
      +                          unction on RA7/OSC1/CLKIN
  2799                           ;	Watchdog Timer Enable bit
  2800                           ;	WDTE = OFF, WDT disabled and can be enabled by SWDTEN bit of the WDTCON register
  2801                           ;	Power-up Timer Enable bit
  2802                           ;	PWRTE = OFF, PWRT disabled
  2803                           ;	RE3/MCLR pin function select bit
  2804                           ;	MCLRE = OFF, RE3/MCLR pin function is digital input, MCLR internally tied to VDD
  2805                           ;	Code Protection bit
  2806                           ;	CP = OFF, Program memory code protection is disabled
  2807                           ;	Data Code Protection bit
  2808                           ;	CPD = OFF, Data memory code protection is disabled
  2809                           ;	Brown Out Reset Selection bits
  2810                           ;	BOREN = OFF, BOR disabled
  2811                           ;	Internal External Switchover bit
  2812                           ;	IESO = OFF, Internal/External Switchover mode is disabled
  2813                           ;	Fail-Safe Clock Monitor Enabled bit
  2814                           ;	FCMEN = OFF, Fail-Safe Clock Monitor is disabled
  2815                           ;	Low Voltage Programming Enable bit
  2816                           ;	LVP = OFF, RB3 pin has digital I/O, HV on MCLR must be used for programming
  2817                           ;	In-Circuit Debugger Mode bit
  2818                           ;	DEBUG = 0x1, unprogrammed default
  2819  2007                     	org	8199
  2820  2007  20D4               	dw	8404
  2821                           
  2822                           ;Config register CONFIG2 @ 0x2008
  2823                           ;	Brown-out Reset Selection bit
  2824                           ;	BOR4V = BOR40V, Brown-out Reset set to 4.0V
  2825                           ;	Flash Program Memory Self Write Enable bits
  2826                           ;	WRT = OFF, Write protection off
  2827  2008                     	org	8200
  2828  2008  3FFF               	dw	16383

Data Sizes:
    Strings     188
    Constant    0
    Data        174
    BSS         8
    Persistent  0
    Stack       0

Auto Spaces:
    Space          Size  Autos    Used
    COMMON           14     14      14
    BANK0            80     20      28
    BANK1            80      0      79
    BANK3            96      0      95
    BANK2            96      0       0

Pointer List with Targets:

    utoa@buf	PTR unsigned char  size(1) Largest target is 1
		 -> val_imp(BANK0[1]), 

    sp__utoa	PTR unsigned char  size(1) Largest target is 1
		 -> val_imp(BANK0[1]), 

    itoa@buf	PTR unsigned char  size(1) Largest target is 1
		 -> val_imp(BANK0[1]), 

    itoa@cp	PTR unsigned char  size(1) Largest target is 1
		 -> val_imp(BANK0[1]), 

    impresion@txt	PTR unsigned char  size(2) Largest target is 95
		 -> STR_10(CODE[4]), STR_9(CODE[28]), STR_8(CODE[2]), STR_7(CODE[29]), 
		 -> STR_6(CODE[4]), STR_5(CODE[4]), STR_4(CODE[19]), val_imp(BANK0[1]), 
		 -> STR_3(CODE[41]), STR_2(CODE[4]), STR_1(CODE[53]), pregunta_2(BANK1[79]), 
		 -> pregunta_1(BANK3[95]), 

    sp__itoa	PTR unsigned char  size(1) Largest target is 1
		 -> val_imp(BANK0[1]), 


Critical Paths under _main in COMMON

    None.

Critical Paths under _isr in COMMON

    _set_estado->_itoa
    _itoa->_utoa
    _utoa->___lwdiv
    ___awdiv->___wmul

Critical Paths under _main in BANK0

    _main->_impresion

Critical Paths under _isr in BANK0

    _isr->_set_estado
    _set_estado->_itoa
    _itoa->___awdiv
    _itoa->_utoa

Critical Paths under _main in BANK1

    None.

Critical Paths under _isr in BANK1

    None.

Critical Paths under _main in BANK3

    None.

Critical Paths under _isr in BANK3

    None.

Critical Paths under _main in BANK2

    None.

Critical Paths under _isr in BANK2

    None.

Call Graph Tables:

 ---------------------------------------------------------------------------------
 (Depth) Function   	        Calls       Base Space   Used Autos Params    Refs
 ---------------------------------------------------------------------------------
 (0) _main                                                 0     0      0     868
                          _impresion
                              _setup
 ---------------------------------------------------------------------------------
 (1) _setup                                                1     1      0       0
                                             16 BANK0      1     1      0
 ---------------------------------------------------------------------------------
 (1) _impresion                                            4     2      2     868
                                             16 BANK0      4     2      2
 ---------------------------------------------------------------------------------
 Estimated maximum stack depth 1
 ---------------------------------------------------------------------------------
 (Depth) Function   	        Calls       Base Space   Used Autos Params    Refs
 ---------------------------------------------------------------------------------
 (2) _isr                                                  5     5      0    2869
                                             11 BANK0      5     5      0
                         _set_estado
 ---------------------------------------------------------------------------------
 (3) _set_estado                                           2     2      0    2869
                                              9 BANK0      2     2      0
                            ___awdiv
                             ___wmul
                               _itoa
                        i1_impresion
 ---------------------------------------------------------------------------------
 (5) i1_impresion                                          4     2      2     376
                                              0 COMMON     4     2      2
 ---------------------------------------------------------------------------------
 (4) _itoa                                                 7     3      4    1797
                                             13 COMMON     1     1      0
                                              4 BANK0      5     1      4
                            ___awdiv (ARG)
                             ___wmul (ARG)
                               _utoa
 ---------------------------------------------------------------------------------
 (5) _utoa                                                 9     5      4    1264
                                              8 COMMON     5     1      4
                                              0 BANK0      4     4      0
                            ___lwdiv
                            ___lwmod
 ---------------------------------------------------------------------------------
 (6) ___lwmod                                              6     2      4     311
                                              0 COMMON     6     2      4
 ---------------------------------------------------------------------------------
 (6) ___lwdiv                                              8     4      4     466
                                              0 COMMON     8     4      4
 ---------------------------------------------------------------------------------
 (4) ___wmul                                               6     2      4     244
                                              0 COMMON     6     2      4
 ---------------------------------------------------------------------------------
 (4) ___awdiv                                              9     5      4     452
                                              6 COMMON     5     1      4
                                              0 BANK0      4     4      0
                             ___wmul (ARG)
 ---------------------------------------------------------------------------------
 Estimated maximum stack depth 6
 ---------------------------------------------------------------------------------

 Call Graph Graphs:

 _main (ROOT)
   _impresion
   _setup

 _isr (ROOT)
   _set_estado
     ___awdiv
       ___wmul (ARG)
     ___wmul
     _itoa
       ___awdiv (ARG)
       ___wmul (ARG)
       _utoa (ARG)
         ___lwdiv
         ___lwmod
     i1_impresion

 Address spaces:
Name               Size   Autos  Total    Cost      Usage
BANK3               60      0      5F       9       99.0%
BITBANK3            60      0       0       8        0.0%
SFR3                 0      0       0       4        0.0%
BITSFR3              0      0       0       4        0.0%
BANK2               60      0       0      11        0.0%
BITBANK2            60      0       0      10        0.0%
SFR2                 0      0       0       5        0.0%
BITSFR2              0      0       0       5        0.0%
BANK1               50      0      4F       7       98.8%
BITBANK1            50      0       0       6        0.0%
SFR1                 0      0       0       2        0.0%
BITSFR1              0      0       0       2        0.0%
BANK0               50     14      1C       5       35.0%
BITBANK0            50      0       0       4        0.0%
SFR0                 0      0       0       1        0.0%
BITSFR0              0      0       0       1        0.0%
COMMON               E      E       E       1      100.0%
BITCOMMON            E      0       0       0        0.0%
CODE                 0      0       0       0        0.0%
DATA                 0      0      D8      12        0.0%
ABS                  0      0      D8       3        0.0%
NULL                 0      0       0       0        0.0%
STACK                0      0       0       2        0.0%
EEDATA             100      0       0       0        0.0%


Microchip Technology PIC Macro Assembler V2.35 build 20211206165544 
Symbol Table                                                                                   Sat May 07 11:21:08 2022

                      pc 0002                       l86 0455             ___awdiv@sign 0021  
                     fsr 0004      ___wmul@multiplicand 0072                      l110 0593  
                    l107 056D                      u910 0571                      u911 0570  
                    u920 0593                      u921 0592                      u960 04B0  
                    u961 04AF                      u970 04B7                      u971 04B6  
                    u980 04CD                      u981 04CC                      u997 0447  
                    _imp 0034                      _isr 05BF                      fsr0 0004  
                    indf 0000                     l1300 0439                     l1310 044B  
                   l1302 043D                     l1320 0569                     l1312 044C  
                   l1304 0440                     l1322 0571                     l1314 044F  
                   l1306 0443                     l1324 057E                     l1316 0452  
                   l1308 044A                     l1326 0582                     l1270 040B  
                   l1350 04B7                     l1342 04A5                     l1280 0421  
                   l1272 0418                     l1352 04C0                     l1344 04AA  
                   l1290 042D                     l1282 0424                     l1274 041E  
                   l1266 0406                     l1354 04C6                     l1346 04B0  
                   l1292 0430                     l1284 0427                     l1276 041F  
                   l1268 040A                     l1356 04CD                     l1348 04B1  
                   l1294 0433                     l1286 0429                     l1278 0420  
                   l1358 04E1                     l1296 0435                     l1288 042C  
                   l1298 0438                     ?_isr 0070                     STR_1 0210  
                   STR_2 02C2                     STR_3 0245                     STR_4 02A7  
                   STR_5 02BA                     STR_6 02C6                     STR_7 026E  
                   STR_8 02CA                     STR_9 028B                     i1l72 05DA  
                   _dato 0036                     _main 04A5                     _itoa 05E7  
                   btemp 007E                     _utoa 02CC                     start 0012  
                  ??_isr 002B                    ?_main 0070                    ?_itoa 0024  
        __end_of___awdiv 03A7                    STR_10 02BE                    _ANSEL 0188  
                  ?_utoa 0078          ___awdiv@divisor 0076          __end_of___lwdiv 052F  
                  i1l110 05BE                    i1l103 0165                    i1l107 0596  
        __end_of___lwmod 0569                    i1l196 0619                    i1l349 03A6  
                  i1l198 0631                    i1l650 060C                    i1l468 052E  
                  i1l478 0568                    i1l656 0326                    i1l658 033D  
        ___awdiv@counter 0020                    _RCREG 001A                    u50_20 04F3  
                  u50_21 04F2                    _SPBRG 0099                    _PORTA 0005  
                  _PORTD 0008                    u51_25 04F7                    u52_20 0505  
                  u60_20 0551                    u52_21 0504                    u60_21 0550  
                  u60_25 054D                    u53_25 0506                    u61_25 0558  
                  u70_20 062D                    u54_20 0516                    u62_20 0564  
                  u70_21 062C                    u54_21 0515                    u62_21 0563  
                  u54_25 0512                    u71_20 0345                    u63_20 02F0  
                  u71_21 0344                    u63_21 02EF                    u55_25 051E  
                  u80_20 039D                    u72_20 0350                    u56_20 052A  
                  u64_20 0322                    u80_21 039C                    u72_21 034F  
                  u56_21 0529                    u64_21 0321                    u73_20 0361  
                  u57_20 0535                    u65_20 0339                    u81_20 059A  
                  u73_21 0360                    u57_21 0534                    u65_21 0338  
                  u81_21 0599                    _TRISA 0085                    _TRISD 0088  
                  u66_20 05EE                    u82_20 05BE                    u90_20 014B  
                  u66_21 05ED                    u82_21 05BD                    u90_21 014A  
                  u74_25 0365                    u58_25 0539                    u75_20 0373  
                  u67_20 0613                    u59_20 0547                    u83_20 0045  
                  u75_21 0372                    u67_21 0612                    u59_21 0546  
                  u83_21 0044                    u84_20 004B                    u84_21 004A  
                  u76_25 0374                    u68_25 061A                    u77_20 0384  
                  u85_20 00CE                    u93_20 05C3                    u77_21 0383  
                  u85_21 00CD                    u93_21 05C2                    u77_25 0380  
                  u69_25 0621                    u86_20 00ED                    u94_20 05CC  
                  u86_21 00EC                    u94_21 05CB                    u78_25 038C  
                  u86_25 00E9                    u79_20 0398                    u87_20 010A  
                  u95_20 05D5                    u79_21 0397                    u87_21 0109  
                  u95_21 05D4                    u88_20 0118                    u88_21 0117  
                  u88_25 0114                    u89_20 012E                    u89_21 012D  
                  _TXREG 0019                    u89_25 012A              i1_impresion 0594  
                  _setup 0406                    pclath 000A                    utoa@c 0022  
                  utoa@v 0020                    status 0003                    wtemp0 007E  
        __initialization 0015             __end_of_main 04EB             __end_of_itoa 060D  
           __end_of_utoa 033E                   ??_main 0034                   ??_itoa 007D  
                 ??_utoa 007C                   _ADRESH 001E         ___awdiv@dividend 0078  
                 ?_setup 0070                   _ANSELH 0189                   i1l1100 0309  
                 i1l1110 0333                   i1l1102 031A                   i1l1040 04ED  
                 i1l1112 0339                   i1l1104 0322                   i1l1120 05EE  
                 i1l1200 004B                   i1l1130 060D                   i1l1050 0505  
                 i1l1042 04F3                   i1l1106 032A                   i1l1122 05F5  
                 i1l1210 00C3                   i1l1202 005D                   i1l1140 062D  
                 i1l1132 060F                   i1l1052 0516                   i1l1044 04F6  
                 i1l1060 052A                   i1l1108 0331                   i1l1124 05F9  
                 i1l1116 05EA                   i1l1220 00E0                   i1l1204 0070  
                 i1l1212 00C8                   i1l1150 034A                   i1l1134 0613  
                 i1l1054 051C                   i1l1046 04FD                   i1l1038 04EB  
                 i1l1070 053F                   i1l1126 05FE                   i1l1118 05EA  
                 i1l1214 00CE                   i1l1206 0079                   i1l1160 035B  
                 i1l1152 034C                   i1l1144 033E                   i1l1136 0620  
                 i1l1056 051D                   i1l1048 0501                   i1l1080 055E  
                 i1l1072 0543                   i1l1064 052F                   i1l1240 011F  
                 i1l1224 00EE                   i1l1216 00D7                   i1l1208 0082  
                 i1l1232 0103                   i1l1170 0373                   i1l1162 0361  
                 i1l1154 0350                   i1l1146 0341                   i1l1138 0627  
                 i1l1058 0524                   i1l1074 0547                   i1l1066 0535  
                 i1l1082 0564                   i1l1090 02E6                   i1l1250 013C  
                 i1l1242 0121                   i1l1218 00DE                   i1l1330 05C3  
                 i1l1172 0384                   i1l1164 0364                   i1l1180 0398  
                 i1l1156 0355                   i1l1148 0345                   i1l1076 0551  
                 i1l1068 0538                   i1l1092 02EA                   i1l1260 0158  
                 i1l1236 010B                   i1l1228 00F9                   i1l1332 05CC  
                 i1l1182 039D                   i1l1174 038A                   i1l1166 036B  
                 i1l1158 0359                   i1l1078 0557                   i1l1094 02F0  
                 i1l1086 02CF                   i1l1190 059A                   i1l1262 0161  
                 i1l1246 012F                   i1l1238 0118                   i1l1254 0143  
                 i1l1334 05D0                   i1l1184 03A2                   i1l1176 038B  
                 i1l1168 036F                   i1l1096 02F4                   i1l1088 02D3  
                 i1l1192 05A7                   i1l1256 014B                   i1l1248 0138  
                 i1l1336 05D1                   i1l1328 05BF                   i1l1178 0392  
                 i1l1098 02F6                   i1l1194 05AB                   i1l1258 0154  
                 i1l1338 05D5                   i1l1188 0594                   i1l1196 003D  
                 i1l1198 0045                   _SPBRGH 009A                   ___wmul 060D  
              ??___awdiv 007A                ??___lwdiv 0074                ??___lwmod 0074  
                 _estado 0038         ___awdiv@quotient 0022                   saved_w 007E  
__end_of__initialization 0039           __pcstackCOMMON 0070             __pidataBANK1 0456  
           __pidataBANK3 03A7            __end_of_setup 0456                  ??_setup 0030  
             __pbssBANK0 0034               __pmaintext 04A5                  ?___wmul 0070  
             __pintentry 0004             ?i1_impresion 0070               __stringtab 0200  
           i1impresion@i 0073                  ___awdiv 033E                  ___lwdiv 04EB  
                ___lwmod 052F                  __ptext1 0406                  __ptext2 0569  
                __ptext3 05BF                  __ptext4 003D                  __ptext5 0594  
                __ptext6 05E7                  __ptext7 02CC                  __ptext8 052F  
                __ptext9 04EB                  _val_imp 003B                  _val_pot 003A  
      __end_of_impresion 0594     end_of_initialization 0039                  itoa@buf 0028  
                itoa@val 0024               _set_estado 003D                _RCSTAbits 0018  
                utoa@buf 0023                  utoa@val 0078               _pregunta_1 0190  
             _pregunta_2 00A0                _TXSTAbits 0098           __end_of___wmul 0632  
            _BAUDCTLbits 0187             impresion@txt 0030      start_initialization 0015  
            __end_of_isr 05E7              ?_set_estado 0070                 ??___wmul 0074  
             init_fetch0 0632              __pdataBANK1 00A0              __pdataBANK3 0190  
         i1impresion@txt 0070                ___latbits 0002            __pcstackBANK0 0020  
             impresion@i 0033         ___lwdiv@dividend 0072                 ?___awdiv 0076  
               ?___lwdiv 0070                 ?___lwmod 0070                __pstrings 0200  
       ___lwdiv@quotient 0075                _impresion 0569        interrupt_function 0004  
         ___wmul@product 0074                 _PIE1bits 008C                 _PIR1bits 000C  
             _ADCON0bits 001F              __stringbase 020F               _ADCON1bits 009F  
      ___wmul@multiplier 0070               ?_impresion 0030       __end_of__stringtab 0210  
        ___lwdiv@divisor 0070          ___lwdiv@counter 0077                 __ptext10 060D  
               __ptext11 033E             ??_set_estado 0029               _INTCONbits 000B  
          ??i1_impresion 0072                 itoa@base 0026                 init_ram0 0636  
     __end_of_set_estado 0166                 intlevel1 0000              ??_impresion 0032  
       ___lwmod@dividend 0072                stringcode 020A               _OSCCONbits 008F  
               utoa@base 007A          ___lwmod@divisor 0070          ___lwmod@counter 0075  
               stringdir 020A                 stringtab 0200      __end_ofi1_impresion 05BF  
